	.file	"olympic_ranking.cpp"
	.text
	.section	.text$_ZnwyPv,"x"
	.linkonce discard
	.globl	_ZnwyPv
	.def	_ZnwyPv;	.scl	2;	.type	32;	.endef
	.seh_proc	_ZnwyPv
_ZnwyPv:
.LFB370:
	pushq	%rbp
	.seh_pushreg	%rbp
	movq	%rsp, %rbp
	.seh_setframe	%rbp, 0
	.seh_endprologue
	movq	%rcx, 16(%rbp)
	movq	%rdx, 24(%rbp)
	movq	24(%rbp), %rax
	popq	%rbp
	ret
	.seh_endproc
	.section .rdata,"dr"
_ZStL19piecewise_construct:
	.space 1
_ZStL13allocator_arg:
	.space 1
_ZStL6ignore:
	.space 1
.lcomm _ZStL8__ioinit,1,1
	.align 4
_ZN9__gnu_cxxL21__default_lock_policyE:
	.long	2
_ZStL10defer_lock:
	.space 1
_ZStL11try_to_lock:
	.space 1
_ZStL10adopt_lock:
	.space 1
	.align 4
_ZNSt15regex_constantsL5icaseE:
	.long	1
	.align 4
_ZNSt15regex_constantsL6nosubsE:
	.long	2
	.align 4
_ZNSt15regex_constantsL8optimizeE:
	.long	4
	.align 4
_ZNSt15regex_constantsL7collateE:
	.long	8
	.align 4
_ZNSt15regex_constantsL10ECMAScriptE:
	.long	16
	.align 4
_ZNSt15regex_constantsL5basicE:
	.long	32
	.align 4
_ZNSt15regex_constantsL8extendedE:
	.long	64
	.align 4
_ZNSt15regex_constantsL3awkE:
	.long	128
	.align 4
_ZNSt15regex_constantsL4grepE:
	.long	256
	.align 4
_ZNSt15regex_constantsL5egrepE:
	.long	512
	.align 4
_ZNSt15regex_constantsL12__polynomialE:
	.long	1024
	.align 4
_ZNSt15regex_constantsL13match_defaultE:
	.space 4
	.align 4
_ZNSt15regex_constantsL13match_not_bolE:
	.long	1
	.align 4
_ZNSt15regex_constantsL13match_not_eolE:
	.long	2
	.align 4
_ZNSt15regex_constantsL13match_not_bowE:
	.long	4
	.align 4
_ZNSt15regex_constantsL13match_not_eowE:
	.long	8
	.align 4
_ZNSt15regex_constantsL9match_anyE:
	.long	16
	.align 4
_ZNSt15regex_constantsL14match_not_nullE:
	.long	32
	.align 4
_ZNSt15regex_constantsL16match_continuousE:
	.long	64
	.align 4
_ZNSt15regex_constantsL16match_prev_availE:
	.long	128
	.align 4
_ZNSt15regex_constantsL14format_defaultE:
	.space 4
	.align 4
_ZNSt15regex_constantsL10format_sedE:
	.long	256
	.align 4
_ZNSt15regex_constantsL14format_no_copyE:
	.long	512
	.align 4
_ZNSt15regex_constantsL17format_first_onlyE:
	.long	1024
	.align 4
_ZNSt15regex_constantsL13error_collateE:
	.space 4
	.align 4
_ZNSt15regex_constantsL11error_ctypeE:
	.long	1
	.align 4
_ZNSt15regex_constantsL12error_escapeE:
	.long	2
	.align 4
_ZNSt15regex_constantsL13error_backrefE:
	.long	3
	.align 4
_ZNSt15regex_constantsL11error_brackE:
	.long	4
	.align 4
_ZNSt15regex_constantsL11error_parenE:
	.long	5
	.align 4
_ZNSt15regex_constantsL11error_braceE:
	.long	6
	.align 4
_ZNSt15regex_constantsL14error_badbraceE:
	.long	7
	.align 4
_ZNSt15regex_constantsL11error_rangeE:
	.long	8
	.align 4
_ZNSt15regex_constantsL11error_spaceE:
	.long	9
	.align 4
_ZNSt15regex_constantsL15error_badrepeatE:
	.long	10
	.align 4
_ZNSt15regex_constantsL16error_complexityE:
	.long	11
	.align 4
_ZNSt15regex_constantsL11error_stackE:
	.long	12
	.align 4
_ZNSt8__detailL19_S_invalid_state_idE:
	.long	-1
	.section	.text$_ZSt3minIyERKT_S2_S2_,"x"
	.linkonce discard
	.globl	_ZSt3minIyERKT_S2_S2_
	.def	_ZSt3minIyERKT_S2_S2_;	.scl	2;	.type	32;	.endef
	.seh_proc	_ZSt3minIyERKT_S2_S2_
_ZSt3minIyERKT_S2_S2_:
.LFB7957:
	pushq	%rbp
	.seh_pushreg	%rbp
	movq	%rsp, %rbp
	.seh_setframe	%rbp, 0
	.seh_endprologue
	movq	%rcx, 16(%rbp)
	movq	%rdx, 24(%rbp)
	movq	24(%rbp), %rax
	movq	(%rax), %rdx
	movq	16(%rbp), %rax
	movq	(%rax), %rax
	cmpq	%rax, %rdx
	jnb	.L4
	movq	24(%rbp), %rax
	jmp	.L5
.L4:
	movq	16(%rbp), %rax
.L5:
	popq	%rbp
	ret
	.seh_endproc
	.section	.text$_ZNSt12_Vector_baseIiSaIiEE12_Vector_implD1Ev,"x"
	.linkonce discard
	.align 2
	.globl	_ZNSt12_Vector_baseIiSaIiEE12_Vector_implD1Ev
	.def	_ZNSt12_Vector_baseIiSaIiEE12_Vector_implD1Ev;	.scl	2;	.type	32;	.endef
	.seh_proc	_ZNSt12_Vector_baseIiSaIiEE12_Vector_implD1Ev
_ZNSt12_Vector_baseIiSaIiEE12_Vector_implD1Ev:
.LFB8481:
	pushq	%rbp
	.seh_pushreg	%rbp
	movq	%rsp, %rbp
	.seh_setframe	%rbp, 0
	subq	$32, %rsp
	.seh_stackalloc	32
	.seh_endprologue
	movq	%rcx, 16(%rbp)
	movq	16(%rbp), %rcx
	call	_ZNSaIiED2Ev
	nop
	addq	$32, %rsp
	popq	%rbp
	ret
	.seh_endproc
	.section	.text$_ZNSt12_Vector_baseIiSaIiEEC2Ev,"x"
	.linkonce discard
	.align 2
	.globl	_ZNSt12_Vector_baseIiSaIiEEC2Ev
	.def	_ZNSt12_Vector_baseIiSaIiEEC2Ev;	.scl	2;	.type	32;	.endef
	.seh_proc	_ZNSt12_Vector_baseIiSaIiEEC2Ev
_ZNSt12_Vector_baseIiSaIiEEC2Ev:
.LFB8482:
	pushq	%rbp
	.seh_pushreg	%rbp
	movq	%rsp, %rbp
	.seh_setframe	%rbp, 0
	subq	$32, %rsp
	.seh_stackalloc	32
	.seh_endprologue
	movq	%rcx, 16(%rbp)
	movq	16(%rbp), %rax
	movq	%rax, %rcx
	call	_ZNSt12_Vector_baseIiSaIiEE12_Vector_implC1Ev
	nop
	addq	$32, %rsp
	popq	%rbp
	ret
	.seh_endproc
	.section	.text$_ZNSt6vectorIiSaIiEEC1Ev,"x"
	.linkonce discard
	.align 2
	.globl	_ZNSt6vectorIiSaIiEEC1Ev
	.def	_ZNSt6vectorIiSaIiEEC1Ev;	.scl	2;	.type	32;	.endef
	.seh_proc	_ZNSt6vectorIiSaIiEEC1Ev
_ZNSt6vectorIiSaIiEEC1Ev:
.LFB8485:
	pushq	%rbp
	.seh_pushreg	%rbp
	movq	%rsp, %rbp
	.seh_setframe	%rbp, 0
	subq	$32, %rsp
	.seh_stackalloc	32
	.seh_endprologue
	movq	%rcx, 16(%rbp)
	movq	16(%rbp), %rax
	movq	%rax, %rcx
	call	_ZNSt12_Vector_baseIiSaIiEEC2Ev
	nop
	addq	$32, %rsp
	popq	%rbp
	ret
	.seh_endproc
	.def	__main;	.scl	2;	.type	32;	.endef
	.text
	.globl	main
	.def	main;	.scl	2;	.type	32;	.endef
	.seh_proc	main
main:
.LFB8475:
	pushq	%rbp
	.seh_pushreg	%rbp
	pushq	%rbx
	.seh_pushreg	%rbx
	subq	$120, %rsp
	.seh_stackalloc	120
	leaq	112(%rsp), %rbp
	.seh_setframe	%rbp, 112
	.seh_endprologue
	call	__main
	movl	$0, -28(%rbp)
	leaq	-28(%rbp), %rax
	movq	%rax, %rdx
	movq	.refptr._ZSt3cin(%rip), %rcx
.LEHB0:
	call	_ZNSirsERl
.LEHE0:
	leaq	-64(%rbp), %rax
	movq	%rax, %rcx
	call	_ZNSt6vectorIiSaIiEEC1Ev
.L17:
	movl	-28(%rbp), %eax
	leal	-1(%rax), %edx
	movl	%edx, -28(%rbp)
	testl	%eax, %eax
	setne	%al
	testb	%al, %al
	je	.L10
	movl	$0, -4(%rbp)
	movl	$0, -8(%rbp)
	movl	$0, -12(%rbp)
.L14:
	cmpl	$5, -12(%rbp)
	jg	.L11
	leaq	-68(%rbp), %rax
	movq	%rax, %rdx
	movq	.refptr._ZSt3cin(%rip), %rcx
.LEHB1:
	call	_ZNSirsERl
	cmpl	$2, -12(%rbp)
	jg	.L12
	movl	-68(%rbp), %eax
	addl	%eax, -4(%rbp)
	jmp	.L13
.L12:
	cmpl	$2, -12(%rbp)
	jle	.L13
	movl	-68(%rbp), %eax
	addl	%eax, -8(%rbp)
.L13:
	addl	$1, -12(%rbp)
	jmp	.L14
.L11:
	movl	-4(%rbp), %eax
	cmpl	-8(%rbp), %eax
	jle	.L15
	movl	$1, -24(%rbp)
	leaq	-24(%rbp), %rdx
	leaq	-64(%rbp), %rax
	movq	%rax, %rcx
	call	_ZNSt6vectorIiSaIiEE9push_backEOi
	jmp	.L17
.L15:
	movl	$2, -20(%rbp)
	leaq	-20(%rbp), %rdx
	leaq	-64(%rbp), %rax
	movq	%rax, %rcx
	call	_ZNSt6vectorIiSaIiEE9push_backEOi
	jmp	.L17
.L10:
	movl	$0, -16(%rbp)
.L19:
	movl	-16(%rbp), %eax
	movslq	%eax, %rbx
	leaq	-64(%rbp), %rax
	movq	%rax, %rcx
	call	_ZNKSt6vectorIiSaIiEE4sizeEv
	cmpq	%rax, %rbx
	setb	%al
	testb	%al, %al
	je	.L18
	movl	-16(%rbp), %eax
	movslq	%eax, %rdx
	leaq	-64(%rbp), %rax
	movq	%rax, %rcx
	call	_ZNSt6vectorIiSaIiEEixEy
	movl	(%rax), %eax
	movl	%eax, %edx
	movq	.refptr._ZSt4cout(%rip), %rcx
	call	_ZNSolsEi
	movq	.refptr._ZSt4endlIcSt11char_traitsIcEERSt13basic_ostreamIT_T0_ES6_(%rip), %rdx
	movq	%rax, %rcx
	call	_ZNSolsEPFRSoS_E
.LEHE1:
	addl	$1, -16(%rbp)
	jmp	.L19
.L18:
	leaq	-64(%rbp), %rax
	movq	%rax, %rcx
	call	_ZNSt6vectorIiSaIiEED1Ev
	movl	$0, %eax
	jmp	.L23
.L22:
	movq	%rax, %rbx
	leaq	-64(%rbp), %rax
	movq	%rax, %rcx
	call	_ZNSt6vectorIiSaIiEED1Ev
	movq	%rbx, %rax
	movq	%rax, %rcx
.LEHB2:
	call	_Unwind_Resume
.LEHE2:
.L23:
	addq	$120, %rsp
	popq	%rbx
	popq	%rbp
	ret
	.def	__gxx_personality_seh0;	.scl	2;	.type	32;	.endef
	.seh_handler	__gxx_personality_seh0, @unwind, @except
	.seh_handlerdata
.LLSDA8475:
	.byte	0xff
	.byte	0xff
	.byte	0x1
	.uleb128 .LLSDACSE8475-.LLSDACSB8475
.LLSDACSB8475:
	.uleb128 .LEHB0-.LFB8475
	.uleb128 .LEHE0-.LEHB0
	.uleb128 0
	.uleb128 0
	.uleb128 .LEHB1-.LFB8475
	.uleb128 .LEHE1-.LEHB1
	.uleb128 .L22-.LFB8475
	.uleb128 0
	.uleb128 .LEHB2-.LFB8475
	.uleb128 .LEHE2-.LEHB2
	.uleb128 0
	.uleb128 0
.LLSDACSE8475:
	.text
	.seh_endproc
	.section	.text$_ZSt3maxIyERKT_S2_S2_,"x"
	.linkonce discard
	.globl	_ZSt3maxIyERKT_S2_S2_
	.def	_ZSt3maxIyERKT_S2_S2_;	.scl	2;	.type	32;	.endef
	.seh_proc	_ZSt3maxIyERKT_S2_S2_
_ZSt3maxIyERKT_S2_S2_:
.LFB9050:
	pushq	%rbp
	.seh_pushreg	%rbp
	movq	%rsp, %rbp
	.seh_setframe	%rbp, 0
	.seh_endprologue
	movq	%rcx, 16(%rbp)
	movq	%rdx, 24(%rbp)
	movq	16(%rbp), %rax
	movq	(%rax), %rdx
	movq	24(%rbp), %rax
	movq	(%rax), %rax
	cmpq	%rax, %rdx
	jnb	.L25
	movq	24(%rbp), %rax
	jmp	.L26
.L25:
	movq	16(%rbp), %rax
.L26:
	popq	%rbp
	ret
	.seh_endproc
	.section	.text$_ZSt7forwardIiEOT_RNSt16remove_referenceIS0_E4typeE,"x"
	.linkonce discard
	.globl	_ZSt7forwardIiEOT_RNSt16remove_referenceIS0_E4typeE
	.def	_ZSt7forwardIiEOT_RNSt16remove_referenceIS0_E4typeE;	.scl	2;	.type	32;	.endef
	.seh_proc	_ZSt7forwardIiEOT_RNSt16remove_referenceIS0_E4typeE
_ZSt7forwardIiEOT_RNSt16remove_referenceIS0_E4typeE:
.LFB9055:
	pushq	%rbp
	.seh_pushreg	%rbp
	movq	%rsp, %rbp
	.seh_setframe	%rbp, 0
	.seh_endprologue
	movq	%rcx, 16(%rbp)
	movq	16(%rbp), %rax
	popq	%rbp
	ret
	.seh_endproc
	.section	.text$_ZNSt12_Vector_baseIiSaIiEE12_Vector_implC1Ev,"x"
	.linkonce discard
	.align 2
	.globl	_ZNSt12_Vector_baseIiSaIiEE12_Vector_implC1Ev
	.def	_ZNSt12_Vector_baseIiSaIiEE12_Vector_implC1Ev;	.scl	2;	.type	32;	.endef
	.seh_proc	_ZNSt12_Vector_baseIiSaIiEE12_Vector_implC1Ev
_ZNSt12_Vector_baseIiSaIiEE12_Vector_implC1Ev:
.LFB9061:
	pushq	%rbp
	.seh_pushreg	%rbp
	movq	%rsp, %rbp
	.seh_setframe	%rbp, 0
	subq	$32, %rsp
	.seh_stackalloc	32
	.seh_endprologue
	movq	%rcx, 16(%rbp)
	movq	16(%rbp), %rcx
	call	_ZNSaIiEC2Ev
	movq	16(%rbp), %rax
	movq	%rax, %rcx
	call	_ZNSt12_Vector_baseIiSaIiEE17_Vector_impl_dataC2Ev
	nop
	addq	$32, %rsp
	popq	%rbp
	ret
	.seh_endproc
	.section	.text$_ZNSaIiED2Ev,"x"
	.linkonce discard
	.align 2
	.globl	_ZNSaIiED2Ev
	.def	_ZNSaIiED2Ev;	.scl	2;	.type	32;	.endef
	.seh_proc	_ZNSaIiED2Ev
_ZNSaIiED2Ev:
.LFB9063:
	pushq	%rbp
	.seh_pushreg	%rbp
	movq	%rsp, %rbp
	.seh_setframe	%rbp, 0
	subq	$32, %rsp
	.seh_stackalloc	32
	.seh_endprologue
	movq	%rcx, 16(%rbp)
	movq	16(%rbp), %rcx
	call	_ZN9__gnu_cxx13new_allocatorIiED2Ev
	nop
	addq	$32, %rsp
	popq	%rbp
	ret
	.seh_endproc
	.section	.text$_ZNSt12_Vector_baseIiSaIiEED2Ev,"x"
	.linkonce discard
	.align 2
	.globl	_ZNSt12_Vector_baseIiSaIiEED2Ev
	.def	_ZNSt12_Vector_baseIiSaIiEED2Ev;	.scl	2;	.type	32;	.endef
	.seh_proc	_ZNSt12_Vector_baseIiSaIiEED2Ev
_ZNSt12_Vector_baseIiSaIiEED2Ev:
.LFB9066:
	pushq	%rbp
	.seh_pushreg	%rbp
	movq	%rsp, %rbp
	.seh_setframe	%rbp, 0
	subq	$32, %rsp
	.seh_stackalloc	32
	.seh_endprologue
	movq	%rcx, 16(%rbp)
	movq	16(%rbp), %rax
	movq	16(%rax), %rdx
	movq	16(%rbp), %rax
	movq	(%rax), %rcx
	movq	%rdx, %rax
	subq	%rcx, %rax
	sarq	$2, %rax
	movq	%rax, %rdx
	movq	16(%rbp), %rax
	movq	(%rax), %rax
	movq	%rdx, %r8
	movq	%rax, %rdx
	movq	16(%rbp), %rcx
	call	_ZNSt12_Vector_baseIiSaIiEE13_M_deallocateEPiy
	movq	16(%rbp), %rax
	movq	%rax, %rcx
	call	_ZNSt12_Vector_baseIiSaIiEE12_Vector_implD1Ev
	nop
	addq	$32, %rsp
	popq	%rbp
	ret
	.seh_handler	__gxx_personality_seh0, @unwind, @except
	.seh_handlerdata
.LLSDA9066:
	.byte	0xff
	.byte	0xff
	.byte	0x1
	.uleb128 .LLSDACSE9066-.LLSDACSB9066
.LLSDACSB9066:
.LLSDACSE9066:
	.section	.text$_ZNSt12_Vector_baseIiSaIiEED2Ev,"x"
	.linkonce discard
	.seh_endproc
	.section	.text$_ZNSt6vectorIiSaIiEED1Ev,"x"
	.linkonce discard
	.align 2
	.globl	_ZNSt6vectorIiSaIiEED1Ev
	.def	_ZNSt6vectorIiSaIiEED1Ev;	.scl	2;	.type	32;	.endef
	.seh_proc	_ZNSt6vectorIiSaIiEED1Ev
_ZNSt6vectorIiSaIiEED1Ev:
.LFB9070:
	pushq	%rbp
	.seh_pushreg	%rbp
	movq	%rsp, %rbp
	.seh_setframe	%rbp, 0
	subq	$32, %rsp
	.seh_stackalloc	32
	.seh_endprologue
	movq	%rcx, 16(%rbp)
	movq	16(%rbp), %rax
	movq	%rax, %rcx
	call	_ZNSt12_Vector_baseIiSaIiEE19_M_get_Tp_allocatorEv
	movq	%rax, %rcx
	movq	16(%rbp), %rax
	movq	8(%rax), %rdx
	movq	16(%rbp), %rax
	movq	(%rax), %rax
	movq	%rcx, %r8
	movq	%rax, %rcx
	call	_ZSt8_DestroyIPiiEvT_S1_RSaIT0_E
	movq	16(%rbp), %rax
	movq	%rax, %rcx
	call	_ZNSt12_Vector_baseIiSaIiEED2Ev
	nop
	addq	$32, %rsp
	popq	%rbp
	ret
	.seh_handler	__gxx_personality_seh0, @unwind, @except
	.seh_handlerdata
.LLSDA9070:
	.byte	0xff
	.byte	0xff
	.byte	0x1
	.uleb128 .LLSDACSE9070-.LLSDACSB9070
.LLSDACSB9070:
.LLSDACSE9070:
	.section	.text$_ZNSt6vectorIiSaIiEED1Ev,"x"
	.linkonce discard
	.seh_endproc
	.section	.text$_ZNSt6vectorIiSaIiEE9push_backEOi,"x"
	.linkonce discard
	.align 2
	.globl	_ZNSt6vectorIiSaIiEE9push_backEOi
	.def	_ZNSt6vectorIiSaIiEE9push_backEOi;	.scl	2;	.type	32;	.endef
	.seh_proc	_ZNSt6vectorIiSaIiEE9push_backEOi
_ZNSt6vectorIiSaIiEE9push_backEOi:
.LFB9071:
	pushq	%rbp
	.seh_pushreg	%rbp
	movq	%rsp, %rbp
	.seh_setframe	%rbp, 0
	subq	$32, %rsp
	.seh_stackalloc	32
	.seh_endprologue
	movq	%rcx, 16(%rbp)
	movq	%rdx, 24(%rbp)
	movq	24(%rbp), %rax
	movq	%rax, %rcx
	call	_ZSt4moveIRiEONSt16remove_referenceIT_E4typeEOS2_
	movq	%rax, %rdx
	movq	16(%rbp), %rcx
	call	_ZNSt6vectorIiSaIiEE12emplace_backIJiEEEvDpOT_
	nop
	addq	$32, %rsp
	popq	%rbp
	ret
	.seh_endproc
	.section	.text$_ZNKSt6vectorIiSaIiEE4sizeEv,"x"
	.linkonce discard
	.align 2
	.globl	_ZNKSt6vectorIiSaIiEE4sizeEv
	.def	_ZNKSt6vectorIiSaIiEE4sizeEv;	.scl	2;	.type	32;	.endef
	.seh_proc	_ZNKSt6vectorIiSaIiEE4sizeEv
_ZNKSt6vectorIiSaIiEE4sizeEv:
.LFB9072:
	pushq	%rbp
	.seh_pushreg	%rbp
	movq	%rsp, %rbp
	.seh_setframe	%rbp, 0
	.seh_endprologue
	movq	%rcx, 16(%rbp)
	movq	16(%rbp), %rax
	movq	8(%rax), %rdx
	movq	16(%rbp), %rax
	movq	(%rax), %rcx
	movq	%rdx, %rax
	subq	%rcx, %rax
	sarq	$2, %rax
	popq	%rbp
	ret
	.seh_endproc
	.section	.text$_ZNSt6vectorIiSaIiEEixEy,"x"
	.linkonce discard
	.align 2
	.globl	_ZNSt6vectorIiSaIiEEixEy
	.def	_ZNSt6vectorIiSaIiEEixEy;	.scl	2;	.type	32;	.endef
	.seh_proc	_ZNSt6vectorIiSaIiEEixEy
_ZNSt6vectorIiSaIiEEixEy:
.LFB9073:
	pushq	%rbp
	.seh_pushreg	%rbp
	movq	%rsp, %rbp
	.seh_setframe	%rbp, 0
	.seh_endprologue
	movq	%rcx, 16(%rbp)
	movq	%rdx, 24(%rbp)
	movq	16(%rbp), %rax
	movq	(%rax), %rdx
	movq	24(%rbp), %rax
	salq	$2, %rax
	addq	%rdx, %rax
	popq	%rbp
	ret
	.seh_endproc
	.section	.text$_ZNSaIiEC2Ev,"x"
	.linkonce discard
	.align 2
	.globl	_ZNSaIiEC2Ev
	.def	_ZNSaIiEC2Ev;	.scl	2;	.type	32;	.endef
	.seh_proc	_ZNSaIiEC2Ev
_ZNSaIiEC2Ev:
.LFB9349:
	pushq	%rbp
	.seh_pushreg	%rbp
	movq	%rsp, %rbp
	.seh_setframe	%rbp, 0
	subq	$32, %rsp
	.seh_stackalloc	32
	.seh_endprologue
	movq	%rcx, 16(%rbp)
	movq	16(%rbp), %rcx
	call	_ZN9__gnu_cxx13new_allocatorIiEC2Ev
	nop
	addq	$32, %rsp
	popq	%rbp
	ret
	.seh_endproc
	.section	.text$_ZNSt12_Vector_baseIiSaIiEE17_Vector_impl_dataC2Ev,"x"
	.linkonce discard
	.align 2
	.globl	_ZNSt12_Vector_baseIiSaIiEE17_Vector_impl_dataC2Ev
	.def	_ZNSt12_Vector_baseIiSaIiEE17_Vector_impl_dataC2Ev;	.scl	2;	.type	32;	.endef
	.seh_proc	_ZNSt12_Vector_baseIiSaIiEE17_Vector_impl_dataC2Ev
_ZNSt12_Vector_baseIiSaIiEE17_Vector_impl_dataC2Ev:
.LFB9352:
	pushq	%rbp
	.seh_pushreg	%rbp
	movq	%rsp, %rbp
	.seh_setframe	%rbp, 0
	.seh_endprologue
	movq	%rcx, 16(%rbp)
	movq	16(%rbp), %rax
	movq	$0, (%rax)
	movq	16(%rbp), %rax
	movq	$0, 8(%rax)
	movq	16(%rbp), %rax
	movq	$0, 16(%rax)
	nop
	popq	%rbp
	ret
	.seh_endproc
	.section	.text$_ZN9__gnu_cxx13new_allocatorIiED2Ev,"x"
	.linkonce discard
	.align 2
	.globl	_ZN9__gnu_cxx13new_allocatorIiED2Ev
	.def	_ZN9__gnu_cxx13new_allocatorIiED2Ev;	.scl	2;	.type	32;	.endef
	.seh_proc	_ZN9__gnu_cxx13new_allocatorIiED2Ev
_ZN9__gnu_cxx13new_allocatorIiED2Ev:
.LFB9355:
	pushq	%rbp
	.seh_pushreg	%rbp
	movq	%rsp, %rbp
	.seh_setframe	%rbp, 0
	.seh_endprologue
	movq	%rcx, 16(%rbp)
	nop
	popq	%rbp
	ret
	.seh_endproc
	.section	.text$_ZNSt12_Vector_baseIiSaIiEE13_M_deallocateEPiy,"x"
	.linkonce discard
	.align 2
	.globl	_ZNSt12_Vector_baseIiSaIiEE13_M_deallocateEPiy
	.def	_ZNSt12_Vector_baseIiSaIiEE13_M_deallocateEPiy;	.scl	2;	.type	32;	.endef
	.seh_proc	_ZNSt12_Vector_baseIiSaIiEE13_M_deallocateEPiy
_ZNSt12_Vector_baseIiSaIiEE13_M_deallocateEPiy:
.LFB9357:
	pushq	%rbp
	.seh_pushreg	%rbp
	movq	%rsp, %rbp
	.seh_setframe	%rbp, 0
	subq	$32, %rsp
	.seh_stackalloc	32
	.seh_endprologue
	movq	%rcx, 16(%rbp)
	movq	%rdx, 24(%rbp)
	movq	%r8, 32(%rbp)
	cmpq	$0, 24(%rbp)
	je	.L43
	movq	16(%rbp), %rax
	movq	32(%rbp), %rcx
	movq	24(%rbp), %rdx
	movq	%rcx, %r8
	movq	%rax, %rcx
	call	_ZNSt16allocator_traitsISaIiEE10deallocateERS0_Piy
.L43:
	nop
	addq	$32, %rsp
	popq	%rbp
	ret
	.seh_endproc
	.section	.text$_ZNSt12_Vector_baseIiSaIiEE19_M_get_Tp_allocatorEv,"x"
	.linkonce discard
	.align 2
	.globl	_ZNSt12_Vector_baseIiSaIiEE19_M_get_Tp_allocatorEv
	.def	_ZNSt12_Vector_baseIiSaIiEE19_M_get_Tp_allocatorEv;	.scl	2;	.type	32;	.endef
	.seh_proc	_ZNSt12_Vector_baseIiSaIiEE19_M_get_Tp_allocatorEv
_ZNSt12_Vector_baseIiSaIiEE19_M_get_Tp_allocatorEv:
.LFB9358:
	pushq	%rbp
	.seh_pushreg	%rbp
	movq	%rsp, %rbp
	.seh_setframe	%rbp, 0
	.seh_endprologue
	movq	%rcx, 16(%rbp)
	movq	16(%rbp), %rax
	popq	%rbp
	ret
	.seh_endproc
	.section	.text$_ZSt8_DestroyIPiiEvT_S1_RSaIT0_E,"x"
	.linkonce discard
	.globl	_ZSt8_DestroyIPiiEvT_S1_RSaIT0_E
	.def	_ZSt8_DestroyIPiiEvT_S1_RSaIT0_E;	.scl	2;	.type	32;	.endef
	.seh_proc	_ZSt8_DestroyIPiiEvT_S1_RSaIT0_E
_ZSt8_DestroyIPiiEvT_S1_RSaIT0_E:
.LFB9359:
	pushq	%rbp
	.seh_pushreg	%rbp
	movq	%rsp, %rbp
	.seh_setframe	%rbp, 0
	subq	$32, %rsp
	.seh_stackalloc	32
	.seh_endprologue
	movq	%rcx, 16(%rbp)
	movq	%rdx, 24(%rbp)
	movq	%r8, 32(%rbp)
	movq	24(%rbp), %rax
	movq	%rax, %rdx
	movq	16(%rbp), %rcx
	call	_ZSt8_DestroyIPiEvT_S1_
	nop
	addq	$32, %rsp
	popq	%rbp
	ret
	.seh_endproc
	.section	.text$_ZSt4moveIRiEONSt16remove_referenceIT_E4typeEOS2_,"x"
	.linkonce discard
	.globl	_ZSt4moveIRiEONSt16remove_referenceIT_E4typeEOS2_
	.def	_ZSt4moveIRiEONSt16remove_referenceIT_E4typeEOS2_;	.scl	2;	.type	32;	.endef
	.seh_proc	_ZSt4moveIRiEONSt16remove_referenceIT_E4typeEOS2_
_ZSt4moveIRiEONSt16remove_referenceIT_E4typeEOS2_:
.LFB9360:
	pushq	%rbp
	.seh_pushreg	%rbp
	movq	%rsp, %rbp
	.seh_setframe	%rbp, 0
	.seh_endprologue
	movq	%rcx, 16(%rbp)
	movq	16(%rbp), %rax
	popq	%rbp
	ret
	.seh_endproc
	.section	.text$_ZNSt6vectorIiSaIiEE12emplace_backIJiEEEvDpOT_,"x"
	.linkonce discard
	.align 2
	.globl	_ZNSt6vectorIiSaIiEE12emplace_backIJiEEEvDpOT_
	.def	_ZNSt6vectorIiSaIiEE12emplace_backIJiEEEvDpOT_;	.scl	2;	.type	32;	.endef
	.seh_proc	_ZNSt6vectorIiSaIiEE12emplace_backIJiEEEvDpOT_
_ZNSt6vectorIiSaIiEE12emplace_backIJiEEEvDpOT_:
.LFB9361:
	pushq	%rbp
	.seh_pushreg	%rbp
	pushq	%rbx
	.seh_pushreg	%rbx
	subq	$40, %rsp
	.seh_stackalloc	40
	leaq	32(%rsp), %rbp
	.seh_setframe	%rbp, 32
	.seh_endprologue
	movq	%rcx, 32(%rbp)
	movq	%rdx, 40(%rbp)
	movq	32(%rbp), %rax
	movq	8(%rax), %rdx
	movq	32(%rbp), %rax
	movq	16(%rax), %rax
	cmpq	%rax, %rdx
	je	.L50
	movq	40(%rbp), %rax
	movq	%rax, %rcx
	call	_ZSt7forwardIiEOT_RNSt16remove_referenceIS0_E4typeE
	movq	%rax, %rcx
	movq	32(%rbp), %rax
	movq	8(%rax), %rdx
	movq	32(%rbp), %rax
	movq	%rcx, %r8
	movq	%rax, %rcx
	call	_ZNSt16allocator_traitsISaIiEE9constructIiJiEEEvRS0_PT_DpOT0_
	movq	32(%rbp), %rax
	movq	8(%rax), %rax
	leaq	4(%rax), %rdx
	movq	32(%rbp), %rax
	movq	%rdx, 8(%rax)
	jmp	.L52
.L50:
	movq	40(%rbp), %rax
	movq	%rax, %rcx
	call	_ZSt7forwardIiEOT_RNSt16remove_referenceIS0_E4typeE
	movq	%rax, %rbx
	movq	32(%rbp), %rcx
	call	_ZNSt6vectorIiSaIiEE3endEv
	movq	%rbx, %r8
	movq	%rax, %rdx
	movq	32(%rbp), %rcx
	call	_ZNSt6vectorIiSaIiEE17_M_realloc_insertIJiEEEvN9__gnu_cxx17__normal_iteratorIPiS1_EEDpOT_
.L52:
	nop
	addq	$40, %rsp
	popq	%rbx
	popq	%rbp
	ret
	.seh_endproc
	.section	.text$_ZN9__gnu_cxx13new_allocatorIiEC2Ev,"x"
	.linkonce discard
	.align 2
	.globl	_ZN9__gnu_cxx13new_allocatorIiEC2Ev
	.def	_ZN9__gnu_cxx13new_allocatorIiEC2Ev;	.scl	2;	.type	32;	.endef
	.seh_proc	_ZN9__gnu_cxx13new_allocatorIiEC2Ev
_ZN9__gnu_cxx13new_allocatorIiEC2Ev:
.LFB9510:
	pushq	%rbp
	.seh_pushreg	%rbp
	movq	%rsp, %rbp
	.seh_setframe	%rbp, 0
	.seh_endprologue
	movq	%rcx, 16(%rbp)
	nop
	popq	%rbp
	ret
	.seh_endproc
	.section	.text$_ZNSt16allocator_traitsISaIiEE10deallocateERS0_Piy,"x"
	.linkonce discard
	.globl	_ZNSt16allocator_traitsISaIiEE10deallocateERS0_Piy
	.def	_ZNSt16allocator_traitsISaIiEE10deallocateERS0_Piy;	.scl	2;	.type	32;	.endef
	.seh_proc	_ZNSt16allocator_traitsISaIiEE10deallocateERS0_Piy
_ZNSt16allocator_traitsISaIiEE10deallocateERS0_Piy:
.LFB9512:
	pushq	%rbp
	.seh_pushreg	%rbp
	movq	%rsp, %rbp
	.seh_setframe	%rbp, 0
	subq	$32, %rsp
	.seh_stackalloc	32
	.seh_endprologue
	movq	%rcx, 16(%rbp)
	movq	%rdx, 24(%rbp)
	movq	%r8, 32(%rbp)
	movq	32(%rbp), %rdx
	movq	24(%rbp), %rax
	movq	%rdx, %r8
	movq	%rax, %rdx
	movq	16(%rbp), %rcx
	call	_ZN9__gnu_cxx13new_allocatorIiE10deallocateEPiy
	nop
	addq	$32, %rsp
	popq	%rbp
	ret
	.seh_endproc
	.section	.text$_ZSt8_DestroyIPiEvT_S1_,"x"
	.linkonce discard
	.globl	_ZSt8_DestroyIPiEvT_S1_
	.def	_ZSt8_DestroyIPiEvT_S1_;	.scl	2;	.type	32;	.endef
	.seh_proc	_ZSt8_DestroyIPiEvT_S1_
_ZSt8_DestroyIPiEvT_S1_:
.LFB9513:
	pushq	%rbp
	.seh_pushreg	%rbp
	movq	%rsp, %rbp
	.seh_setframe	%rbp, 0
	subq	$32, %rsp
	.seh_stackalloc	32
	.seh_endprologue
	movq	%rcx, 16(%rbp)
	movq	%rdx, 24(%rbp)
	movq	24(%rbp), %rax
	movq	%rax, %rdx
	movq	16(%rbp), %rcx
	call	_ZNSt12_Destroy_auxILb1EE9__destroyIPiEEvT_S3_
	nop
	addq	$32, %rsp
	popq	%rbp
	ret
	.seh_endproc
	.section	.text$_ZNSt16allocator_traitsISaIiEE9constructIiJiEEEvRS0_PT_DpOT0_,"x"
	.linkonce discard
	.globl	_ZNSt16allocator_traitsISaIiEE9constructIiJiEEEvRS0_PT_DpOT0_
	.def	_ZNSt16allocator_traitsISaIiEE9constructIiJiEEEvRS0_PT_DpOT0_;	.scl	2;	.type	32;	.endef
	.seh_proc	_ZNSt16allocator_traitsISaIiEE9constructIiJiEEEvRS0_PT_DpOT0_
_ZNSt16allocator_traitsISaIiEE9constructIiJiEEEvRS0_PT_DpOT0_:
.LFB9514:
	pushq	%rbp
	.seh_pushreg	%rbp
	movq	%rsp, %rbp
	.seh_setframe	%rbp, 0
	subq	$32, %rsp
	.seh_stackalloc	32
	.seh_endprologue
	movq	%rcx, 16(%rbp)
	movq	%rdx, 24(%rbp)
	movq	%r8, 32(%rbp)
	movq	32(%rbp), %rax
	movq	%rax, %rcx
	call	_ZSt7forwardIiEOT_RNSt16remove_referenceIS0_E4typeE
	movq	%rax, %rdx
	movq	24(%rbp), %rax
	movq	%rdx, %r8
	movq	%rax, %rdx
	movq	16(%rbp), %rcx
	call	_ZN9__gnu_cxx13new_allocatorIiE9constructIiJiEEEvPT_DpOT0_
	nop
	addq	$32, %rsp
	popq	%rbp
	ret
	.seh_endproc
	.section	.text$_ZNSt6vectorIiSaIiEE3endEv,"x"
	.linkonce discard
	.align 2
	.globl	_ZNSt6vectorIiSaIiEE3endEv
	.def	_ZNSt6vectorIiSaIiEE3endEv;	.scl	2;	.type	32;	.endef
	.seh_proc	_ZNSt6vectorIiSaIiEE3endEv
_ZNSt6vectorIiSaIiEE3endEv:
.LFB9515:
	pushq	%rbp
	.seh_pushreg	%rbp
	movq	%rsp, %rbp
	.seh_setframe	%rbp, 0
	subq	$48, %rsp
	.seh_stackalloc	48
	.seh_endprologue
	movq	%rcx, 16(%rbp)
	movq	16(%rbp), %rax
	leaq	8(%rax), %rdx
	leaq	-8(%rbp), %rax
	movq	%rax, %rcx
	call	_ZN9__gnu_cxx17__normal_iteratorIPiSt6vectorIiSaIiEEEC1ERKS1_
	movq	-8(%rbp), %rax
	addq	$48, %rsp
	popq	%rbp
	ret
	.seh_endproc
	.section	.text$_ZNSt6vectorIiSaIiEE15_S_use_relocateEv,"x"
	.linkonce discard
	.globl	_ZNSt6vectorIiSaIiEE15_S_use_relocateEv
	.def	_ZNSt6vectorIiSaIiEE15_S_use_relocateEv;	.scl	2;	.type	32;	.endef
	.seh_proc	_ZNSt6vectorIiSaIiEE15_S_use_relocateEv
_ZNSt6vectorIiSaIiEE15_S_use_relocateEv:
.LFB9517:
	pushq	%rbp
	.seh_pushreg	%rbp
	movq	%rsp, %rbp
	.seh_setframe	%rbp, 0
	subq	$48, %rsp
	.seh_stackalloc	48
	.seh_endprologue
	movl	%eax, %ecx
	call	_ZNSt6vectorIiSaIiEE19_S_nothrow_relocateESt17integral_constantIbLb1EE
	addq	$48, %rsp
	popq	%rbp
	ret
	.seh_endproc
	.section	.text$_ZNSt6vectorIiSaIiEE19_S_nothrow_relocateESt17integral_constantIbLb1EE,"x"
	.linkonce discard
	.globl	_ZNSt6vectorIiSaIiEE19_S_nothrow_relocateESt17integral_constantIbLb1EE
	.def	_ZNSt6vectorIiSaIiEE19_S_nothrow_relocateESt17integral_constantIbLb1EE;	.scl	2;	.type	32;	.endef
	.seh_proc	_ZNSt6vectorIiSaIiEE19_S_nothrow_relocateESt17integral_constantIbLb1EE
_ZNSt6vectorIiSaIiEE19_S_nothrow_relocateESt17integral_constantIbLb1EE:
.LFB9518:
	pushq	%rbp
	.seh_pushreg	%rbp
	movq	%rsp, %rbp
	.seh_setframe	%rbp, 0
	.seh_endprologue
	movl	$1, %eax
	popq	%rbp
	ret
	.seh_endproc
	.section .rdata,"dr"
.LC0:
	.ascii "vector::_M_realloc_insert\0"
	.section	.text$_ZNSt6vectorIiSaIiEE17_M_realloc_insertIJiEEEvN9__gnu_cxx17__normal_iteratorIPiS1_EEDpOT_,"x"
	.linkonce discard
	.align 2
	.globl	_ZNSt6vectorIiSaIiEE17_M_realloc_insertIJiEEEvN9__gnu_cxx17__normal_iteratorIPiS1_EEDpOT_
	.def	_ZNSt6vectorIiSaIiEE17_M_realloc_insertIJiEEEvN9__gnu_cxx17__normal_iteratorIPiS1_EEDpOT_;	.scl	2;	.type	32;	.endef
	.seh_proc	_ZNSt6vectorIiSaIiEE17_M_realloc_insertIJiEEEvN9__gnu_cxx17__normal_iteratorIPiS1_EEDpOT_
_ZNSt6vectorIiSaIiEE17_M_realloc_insertIJiEEEvN9__gnu_cxx17__normal_iteratorIPiS1_EEDpOT_:
.LFB9516:
	pushq	%rbp
	.seh_pushreg	%rbp
	pushq	%rbx
	.seh_pushreg	%rbx
	subq	$104, %rsp
	.seh_stackalloc	104
	leaq	96(%rsp), %rbp
	.seh_setframe	%rbp, 96
	.seh_endprologue
	movq	%rcx, 32(%rbp)
	movq	%rdx, 40(%rbp)
	movq	%r8, 48(%rbp)
	leaq	.LC0(%rip), %r8
	movl	$1, %edx
	movq	32(%rbp), %rcx
.LEHB3:
	call	_ZNKSt6vectorIiSaIiEE12_M_check_lenEyPKc
	movq	%rax, -16(%rbp)
	movq	32(%rbp), %rax
	movq	(%rax), %rax
	movq	%rax, -24(%rbp)
	movq	32(%rbp), %rax
	movq	8(%rax), %rax
	movq	%rax, -32(%rbp)
	movq	32(%rbp), %rcx
	call	_ZNSt6vectorIiSaIiEE5beginEv
	movq	%rax, -56(%rbp)
	leaq	-56(%rbp), %rdx
	leaq	40(%rbp), %rax
	movq	%rax, %rcx
	call	_ZN9__gnu_cxxmiIPiSt6vectorIiSaIiEEEENS_17__normal_iteratorIT_T0_E15difference_typeERKS8_SB_
	movq	%rax, -40(%rbp)
	movq	32(%rbp), %rax
	movq	-16(%rbp), %rdx
	movq	%rax, %rcx
	call	_ZNSt12_Vector_baseIiSaIiEE11_M_allocateEy
.LEHE3:
	movq	%rax, -48(%rbp)
	movq	-48(%rbp), %rax
	movq	%rax, -8(%rbp)
	movq	48(%rbp), %rax
	movq	%rax, %rcx
	call	_ZSt7forwardIiEOT_RNSt16remove_referenceIS0_E4typeE
	movq	%rax, %rcx
	movq	-40(%rbp), %rax
	leaq	0(,%rax,4), %rdx
	movq	-48(%rbp), %rax
	addq	%rax, %rdx
	movq	32(%rbp), %rax
	movq	%rcx, %r8
	movq	%rax, %rcx
	call	_ZNSt16allocator_traitsISaIiEE9constructIiJiEEEvRS0_PT_DpOT0_
	movq	$0, -8(%rbp)
	call	_ZNSt6vectorIiSaIiEE15_S_use_relocateEv
	testb	%al, %al
	je	.L64
	movq	32(%rbp), %rax
	movq	%rax, %rcx
	call	_ZNSt12_Vector_baseIiSaIiEE19_M_get_Tp_allocatorEv
	movq	%rax, %rbx
	leaq	40(%rbp), %rax
	movq	%rax, %rcx
	call	_ZNK9__gnu_cxx17__normal_iteratorIPiSt6vectorIiSaIiEEE4baseEv
	movq	(%rax), %rdx
	movq	-48(%rbp), %rcx
	movq	-24(%rbp), %rax
	movq	%rbx, %r9
	movq	%rcx, %r8
	movq	%rax, %rcx
	call	_ZNSt6vectorIiSaIiEE11_S_relocateEPiS2_S2_RS0_
	movq	%rax, -8(%rbp)
	addq	$4, -8(%rbp)
	movq	32(%rbp), %rax
	movq	%rax, %rcx
	call	_ZNSt12_Vector_baseIiSaIiEE19_M_get_Tp_allocatorEv
	movq	%rax, %rbx
	leaq	40(%rbp), %rax
	movq	%rax, %rcx
	call	_ZNK9__gnu_cxx17__normal_iteratorIPiSt6vectorIiSaIiEEE4baseEv
	movq	(%rax), %rax
	movq	-8(%rbp), %rcx
	movq	-32(%rbp), %rdx
	movq	%rbx, %r9
	movq	%rcx, %r8
	movq	%rax, %rcx
	call	_ZNSt6vectorIiSaIiEE11_S_relocateEPiS2_S2_RS0_
	movq	%rax, -8(%rbp)
	jmp	.L65
.L64:
	movq	32(%rbp), %rax
	movq	%rax, %rcx
	call	_ZNSt12_Vector_baseIiSaIiEE19_M_get_Tp_allocatorEv
	movq	%rax, %rbx
	leaq	40(%rbp), %rax
	movq	%rax, %rcx
	call	_ZNK9__gnu_cxx17__normal_iteratorIPiSt6vectorIiSaIiEEE4baseEv
	movq	(%rax), %rdx
	movq	-48(%rbp), %rcx
	movq	-24(%rbp), %rax
	movq	%rbx, %r9
	movq	%rcx, %r8
	movq	%rax, %rcx
.LEHB4:
	call	_ZSt34__uninitialized_move_if_noexcept_aIPiS0_SaIiEET0_T_S3_S2_RT1_
	movq	%rax, -8(%rbp)
	addq	$4, -8(%rbp)
	movq	32(%rbp), %rax
	movq	%rax, %rcx
	call	_ZNSt12_Vector_baseIiSaIiEE19_M_get_Tp_allocatorEv
	movq	%rax, %rbx
	leaq	40(%rbp), %rax
	movq	%rax, %rcx
	call	_ZNK9__gnu_cxx17__normal_iteratorIPiSt6vectorIiSaIiEEE4baseEv
	movq	(%rax), %rax
	movq	-8(%rbp), %rcx
	movq	-32(%rbp), %rdx
	movq	%rbx, %r9
	movq	%rcx, %r8
	movq	%rax, %rcx
	call	_ZSt34__uninitialized_move_if_noexcept_aIPiS0_SaIiEET0_T_S3_S2_RT1_
.LEHE4:
	movq	%rax, -8(%rbp)
.L65:
	call	_ZNSt6vectorIiSaIiEE15_S_use_relocateEv
	xorl	$1, %eax
	testb	%al, %al
	je	.L66
	movq	32(%rbp), %rax
	movq	%rax, %rcx
	call	_ZNSt12_Vector_baseIiSaIiEE19_M_get_Tp_allocatorEv
	movq	%rax, %rcx
	movq	-32(%rbp), %rdx
	movq	-24(%rbp), %rax
	movq	%rcx, %r8
	movq	%rax, %rcx
.LEHB5:
	call	_ZSt8_DestroyIPiiEvT_S1_RSaIT0_E
.L66:
	movq	32(%rbp), %rax
	movq	32(%rbp), %rdx
	movq	16(%rdx), %rdx
	subq	-24(%rbp), %rdx
	sarq	$2, %rdx
	movq	%rdx, %rcx
	movq	-24(%rbp), %rdx
	movq	%rcx, %r8
	movq	%rax, %rcx
	call	_ZNSt12_Vector_baseIiSaIiEE13_M_deallocateEPiy
.LEHE5:
	movq	32(%rbp), %rax
	movq	-48(%rbp), %rdx
	movq	%rdx, (%rax)
	movq	32(%rbp), %rax
	movq	-8(%rbp), %rdx
	movq	%rdx, 8(%rax)
	movq	-16(%rbp), %rax
	leaq	0(,%rax,4), %rdx
	movq	-48(%rbp), %rax
	addq	%rax, %rdx
	movq	32(%rbp), %rax
	movq	%rdx, 16(%rax)
	jmp	.L73
.L71:
	movq	%rax, %rcx
	call	__cxa_begin_catch
	cmpq	$0, -8(%rbp)
	jne	.L68
	movq	-40(%rbp), %rax
	leaq	0(,%rax,4), %rdx
	movq	-48(%rbp), %rax
	addq	%rax, %rdx
	movq	32(%rbp), %rax
	movq	%rax, %rcx
	call	_ZNSt16allocator_traitsISaIiEE7destroyIiEEvRS0_PT_
	jmp	.L69
.L68:
	movq	32(%rbp), %rax
	movq	%rax, %rcx
	call	_ZNSt12_Vector_baseIiSaIiEE19_M_get_Tp_allocatorEv
	movq	%rax, %rcx
	movq	-8(%rbp), %rdx
	movq	-48(%rbp), %rax
	movq	%rcx, %r8
	movq	%rax, %rcx
.LEHB6:
	call	_ZSt8_DestroyIPiiEvT_S1_RSaIT0_E
.L69:
	movq	32(%rbp), %rax
	movq	-16(%rbp), %rcx
	movq	-48(%rbp), %rdx
	movq	%rcx, %r8
	movq	%rax, %rcx
	call	_ZNSt12_Vector_baseIiSaIiEE13_M_deallocateEPiy
	call	__cxa_rethrow
.LEHE6:
.L72:
	movq	%rax, %rbx
	call	__cxa_end_catch
	movq	%rbx, %rax
	movq	%rax, %rcx
.LEHB7:
	call	_Unwind_Resume
	nop
.LEHE7:
.L73:
	addq	$104, %rsp
	popq	%rbx
	popq	%rbp
	ret
	.seh_handler	__gxx_personality_seh0, @unwind, @except
	.seh_handlerdata
	.align 4
.LLSDA9516:
	.byte	0xff
	.byte	0x9b
	.uleb128 .LLSDATT9516-.LLSDATTD9516
.LLSDATTD9516:
	.byte	0x1
	.uleb128 .LLSDACSE9516-.LLSDACSB9516
.LLSDACSB9516:
	.uleb128 .LEHB3-.LFB9516
	.uleb128 .LEHE3-.LEHB3
	.uleb128 0
	.uleb128 0
	.uleb128 .LEHB4-.LFB9516
	.uleb128 .LEHE4-.LEHB4
	.uleb128 .L71-.LFB9516
	.uleb128 0x1
	.uleb128 .LEHB5-.LFB9516
	.uleb128 .LEHE5-.LEHB5
	.uleb128 0
	.uleb128 0
	.uleb128 .LEHB6-.LFB9516
	.uleb128 .LEHE6-.LEHB6
	.uleb128 .L72-.LFB9516
	.uleb128 0
	.uleb128 .LEHB7-.LFB9516
	.uleb128 .LEHE7-.LEHB7
	.uleb128 0
	.uleb128 0
.LLSDACSE9516:
	.byte	0x1
	.byte	0
	.align 4
	.long	0

.LLSDATT9516:
	.section	.text$_ZNSt6vectorIiSaIiEE17_M_realloc_insertIJiEEEvN9__gnu_cxx17__normal_iteratorIPiS1_EEDpOT_,"x"
	.linkonce discard
	.seh_endproc
	.section	.text$_ZN9__gnu_cxx13new_allocatorIiE10deallocateEPiy,"x"
	.linkonce discard
	.align 2
	.globl	_ZN9__gnu_cxx13new_allocatorIiE10deallocateEPiy
	.def	_ZN9__gnu_cxx13new_allocatorIiE10deallocateEPiy;	.scl	2;	.type	32;	.endef
	.seh_proc	_ZN9__gnu_cxx13new_allocatorIiE10deallocateEPiy
_ZN9__gnu_cxx13new_allocatorIiE10deallocateEPiy:
.LFB9611:
	pushq	%rbp
	.seh_pushreg	%rbp
	movq	%rsp, %rbp
	.seh_setframe	%rbp, 0
	subq	$32, %rsp
	.seh_stackalloc	32
	.seh_endprologue
	movq	%rcx, 16(%rbp)
	movq	%rdx, 24(%rbp)
	movq	%r8, 32(%rbp)
	movq	32(%rbp), %rax
	leaq	0(,%rax,4), %rdx
	movq	24(%rbp), %rax
	movq	%rax, %rcx
	call	_ZdlPvy
	nop
	addq	$32, %rsp
	popq	%rbp
	ret
	.seh_endproc
	.section	.text$_ZNSt12_Destroy_auxILb1EE9__destroyIPiEEvT_S3_,"x"
	.linkonce discard
	.globl	_ZNSt12_Destroy_auxILb1EE9__destroyIPiEEvT_S3_
	.def	_ZNSt12_Destroy_auxILb1EE9__destroyIPiEEvT_S3_;	.scl	2;	.type	32;	.endef
	.seh_proc	_ZNSt12_Destroy_auxILb1EE9__destroyIPiEEvT_S3_
_ZNSt12_Destroy_auxILb1EE9__destroyIPiEEvT_S3_:
.LFB9612:
	pushq	%rbp
	.seh_pushreg	%rbp
	movq	%rsp, %rbp
	.seh_setframe	%rbp, 0
	.seh_endprologue
	movq	%rcx, 16(%rbp)
	movq	%rdx, 24(%rbp)
	nop
	popq	%rbp
	ret
	.seh_endproc
	.section	.text$_ZN9__gnu_cxx13new_allocatorIiE9constructIiJiEEEvPT_DpOT0_,"x"
	.linkonce discard
	.align 2
	.globl	_ZN9__gnu_cxx13new_allocatorIiE9constructIiJiEEEvPT_DpOT0_
	.def	_ZN9__gnu_cxx13new_allocatorIiE9constructIiJiEEEvPT_DpOT0_;	.scl	2;	.type	32;	.endef
	.seh_proc	_ZN9__gnu_cxx13new_allocatorIiE9constructIiJiEEEvPT_DpOT0_
_ZN9__gnu_cxx13new_allocatorIiE9constructIiJiEEEvPT_DpOT0_:
.LFB9613:
	pushq	%rbp
	.seh_pushreg	%rbp
	pushq	%rbx
	.seh_pushreg	%rbx
	subq	$40, %rsp
	.seh_stackalloc	40
	leaq	32(%rsp), %rbp
	.seh_setframe	%rbp, 32
	.seh_endprologue
	movq	%rcx, 32(%rbp)
	movq	%rdx, 40(%rbp)
	movq	%r8, 48(%rbp)
	movq	48(%rbp), %rax
	movq	%rax, %rcx
	call	_ZSt7forwardIiEOT_RNSt16remove_referenceIS0_E4typeE
	movl	(%rax), %ebx
	movq	40(%rbp), %rax
	movq	%rax, %rdx
	movl	$4, %ecx
	call	_ZnwyPv
	movl	%ebx, (%rax)
	nop
	addq	$40, %rsp
	popq	%rbx
	popq	%rbp
	ret
	.seh_endproc
	.section	.text$_ZN9__gnu_cxx17__normal_iteratorIPiSt6vectorIiSaIiEEEC1ERKS1_,"x"
	.linkonce discard
	.align 2
	.globl	_ZN9__gnu_cxx17__normal_iteratorIPiSt6vectorIiSaIiEEEC1ERKS1_
	.def	_ZN9__gnu_cxx17__normal_iteratorIPiSt6vectorIiSaIiEEEC1ERKS1_;	.scl	2;	.type	32;	.endef
	.seh_proc	_ZN9__gnu_cxx17__normal_iteratorIPiSt6vectorIiSaIiEEEC1ERKS1_
_ZN9__gnu_cxx17__normal_iteratorIPiSt6vectorIiSaIiEEEC1ERKS1_:
.LFB9616:
	pushq	%rbp
	.seh_pushreg	%rbp
	movq	%rsp, %rbp
	.seh_setframe	%rbp, 0
	.seh_endprologue
	movq	%rcx, 16(%rbp)
	movq	%rdx, 24(%rbp)
	movq	24(%rbp), %rax
	movq	(%rax), %rdx
	movq	16(%rbp), %rax
	movq	%rdx, (%rax)
	nop
	popq	%rbp
	ret
	.seh_endproc
	.section	.text$_ZNKSt6vectorIiSaIiEE12_M_check_lenEyPKc,"x"
	.linkonce discard
	.align 2
	.globl	_ZNKSt6vectorIiSaIiEE12_M_check_lenEyPKc
	.def	_ZNKSt6vectorIiSaIiEE12_M_check_lenEyPKc;	.scl	2;	.type	32;	.endef
	.seh_proc	_ZNKSt6vectorIiSaIiEE12_M_check_lenEyPKc
_ZNKSt6vectorIiSaIiEE12_M_check_lenEyPKc:
.LFB9617:
	pushq	%rbp
	.seh_pushreg	%rbp
	pushq	%rbx
	.seh_pushreg	%rbx
	subq	$56, %rsp
	.seh_stackalloc	56
	leaq	48(%rsp), %rbp
	.seh_setframe	%rbp, 48
	.seh_endprologue
	movq	%rcx, 32(%rbp)
	movq	%rdx, 40(%rbp)
	movq	%r8, 48(%rbp)
	movq	32(%rbp), %rcx
	call	_ZNKSt6vectorIiSaIiEE8max_sizeEv
	movq	%rax, %rbx
	movq	32(%rbp), %rcx
	call	_ZNKSt6vectorIiSaIiEE4sizeEv
	subq	%rax, %rbx
	movq	%rbx, %rdx
	movq	40(%rbp), %rax
	cmpq	%rax, %rdx
	setb	%al
	testb	%al, %al
	je	.L79
	movq	48(%rbp), %rax
	movq	%rax, %rcx
	call	_ZSt20__throw_length_errorPKc
.L79:
	movq	32(%rbp), %rcx
	call	_ZNKSt6vectorIiSaIiEE4sizeEv
	movq	%rax, %rbx
	movq	32(%rbp), %rcx
	call	_ZNKSt6vectorIiSaIiEE4sizeEv
	movq	%rax, -16(%rbp)
	leaq	40(%rbp), %rdx
	leaq	-16(%rbp), %rax
	movq	%rax, %rcx
	call	_ZSt3maxIyERKT_S2_S2_
	movq	(%rax), %rax
	addq	%rbx, %rax
	movq	%rax, -8(%rbp)
	movq	32(%rbp), %rcx
	call	_ZNKSt6vectorIiSaIiEE4sizeEv
	cmpq	%rax, -8(%rbp)
	jb	.L80
	movq	32(%rbp), %rcx
	call	_ZNKSt6vectorIiSaIiEE8max_sizeEv
	cmpq	%rax, -8(%rbp)
	jbe	.L81
.L80:
	movq	32(%rbp), %rcx
	call	_ZNKSt6vectorIiSaIiEE8max_sizeEv
	jmp	.L82
.L81:
	movq	-8(%rbp), %rax
.L82:
	addq	$56, %rsp
	popq	%rbx
	popq	%rbp
	ret
	.seh_endproc
	.section	.text$_ZNSt6vectorIiSaIiEE5beginEv,"x"
	.linkonce discard
	.align 2
	.globl	_ZNSt6vectorIiSaIiEE5beginEv
	.def	_ZNSt6vectorIiSaIiEE5beginEv;	.scl	2;	.type	32;	.endef
	.seh_proc	_ZNSt6vectorIiSaIiEE5beginEv
_ZNSt6vectorIiSaIiEE5beginEv:
.LFB9618:
	pushq	%rbp
	.seh_pushreg	%rbp
	movq	%rsp, %rbp
	.seh_setframe	%rbp, 0
	subq	$48, %rsp
	.seh_stackalloc	48
	.seh_endprologue
	movq	%rcx, 16(%rbp)
	movq	16(%rbp), %rdx
	leaq	-8(%rbp), %rax
	movq	%rax, %rcx
	call	_ZN9__gnu_cxx17__normal_iteratorIPiSt6vectorIiSaIiEEEC1ERKS1_
	movq	-8(%rbp), %rax
	addq	$48, %rsp
	popq	%rbp
	ret
	.seh_endproc
	.section	.text$_ZN9__gnu_cxxmiIPiSt6vectorIiSaIiEEEENS_17__normal_iteratorIT_T0_E15difference_typeERKS8_SB_,"x"
	.linkonce discard
	.globl	_ZN9__gnu_cxxmiIPiSt6vectorIiSaIiEEEENS_17__normal_iteratorIT_T0_E15difference_typeERKS8_SB_
	.def	_ZN9__gnu_cxxmiIPiSt6vectorIiSaIiEEEENS_17__normal_iteratorIT_T0_E15difference_typeERKS8_SB_;	.scl	2;	.type	32;	.endef
	.seh_proc	_ZN9__gnu_cxxmiIPiSt6vectorIiSaIiEEEENS_17__normal_iteratorIT_T0_E15difference_typeERKS8_SB_
_ZN9__gnu_cxxmiIPiSt6vectorIiSaIiEEEENS_17__normal_iteratorIT_T0_E15difference_typeERKS8_SB_:
.LFB9619:
	pushq	%rbp
	.seh_pushreg	%rbp
	pushq	%rbx
	.seh_pushreg	%rbx
	subq	$40, %rsp
	.seh_stackalloc	40
	leaq	32(%rsp), %rbp
	.seh_setframe	%rbp, 32
	.seh_endprologue
	movq	%rcx, 32(%rbp)
	movq	%rdx, 40(%rbp)
	movq	32(%rbp), %rcx
	call	_ZNK9__gnu_cxx17__normal_iteratorIPiSt6vectorIiSaIiEEE4baseEv
	movq	(%rax), %rbx
	movq	40(%rbp), %rax
	movq	%rax, %rcx
	call	_ZNK9__gnu_cxx17__normal_iteratorIPiSt6vectorIiSaIiEEE4baseEv
	movq	(%rax), %rdx
	movq	%rbx, %rax
	subq	%rdx, %rax
	sarq	$2, %rax
	addq	$40, %rsp
	popq	%rbx
	popq	%rbp
	ret
	.seh_endproc
	.section	.text$_ZNSt12_Vector_baseIiSaIiEE11_M_allocateEy,"x"
	.linkonce discard
	.align 2
	.globl	_ZNSt12_Vector_baseIiSaIiEE11_M_allocateEy
	.def	_ZNSt12_Vector_baseIiSaIiEE11_M_allocateEy;	.scl	2;	.type	32;	.endef
	.seh_proc	_ZNSt12_Vector_baseIiSaIiEE11_M_allocateEy
_ZNSt12_Vector_baseIiSaIiEE11_M_allocateEy:
.LFB9620:
	pushq	%rbp
	.seh_pushreg	%rbp
	movq	%rsp, %rbp
	.seh_setframe	%rbp, 0
	subq	$32, %rsp
	.seh_stackalloc	32
	.seh_endprologue
	movq	%rcx, 16(%rbp)
	movq	%rdx, 24(%rbp)
	cmpq	$0, 24(%rbp)
	je	.L89
	movq	16(%rbp), %rax
	movq	24(%rbp), %rdx
	movq	%rax, %rcx
	call	_ZNSt16allocator_traitsISaIiEE8allocateERS0_y
	jmp	.L91
.L89:
	movl	$0, %eax
.L91:
	addq	$32, %rsp
	popq	%rbp
	ret
	.seh_endproc
	.section	.text$_ZNSt6vectorIiSaIiEE11_S_relocateEPiS2_S2_RS0_,"x"
	.linkonce discard
	.globl	_ZNSt6vectorIiSaIiEE11_S_relocateEPiS2_S2_RS0_
	.def	_ZNSt6vectorIiSaIiEE11_S_relocateEPiS2_S2_RS0_;	.scl	2;	.type	32;	.endef
	.seh_proc	_ZNSt6vectorIiSaIiEE11_S_relocateEPiS2_S2_RS0_
_ZNSt6vectorIiSaIiEE11_S_relocateEPiS2_S2_RS0_:
.LFB9621:
	pushq	%rbp
	.seh_pushreg	%rbp
	movq	%rsp, %rbp
	.seh_setframe	%rbp, 0
	subq	$32, %rsp
	.seh_stackalloc	32
	.seh_endprologue
	movq	%rcx, 16(%rbp)
	movq	%rdx, 24(%rbp)
	movq	%r8, 32(%rbp)
	movq	%r9, 40(%rbp)
	movq	40(%rbp), %rcx
	movq	32(%rbp), %rdx
	movq	24(%rbp), %rax
	movq	%rcx, %r9
	movq	%rdx, %r8
	movq	%rax, %rdx
	movq	16(%rbp), %rcx
	call	_ZNSt6vectorIiSaIiEE14_S_do_relocateEPiS2_S2_RS0_St17integral_constantIbLb1EE
	addq	$32, %rsp
	popq	%rbp
	ret
	.seh_endproc
	.section	.text$_ZNK9__gnu_cxx17__normal_iteratorIPiSt6vectorIiSaIiEEE4baseEv,"x"
	.linkonce discard
	.align 2
	.globl	_ZNK9__gnu_cxx17__normal_iteratorIPiSt6vectorIiSaIiEEE4baseEv
	.def	_ZNK9__gnu_cxx17__normal_iteratorIPiSt6vectorIiSaIiEEE4baseEv;	.scl	2;	.type	32;	.endef
	.seh_proc	_ZNK9__gnu_cxx17__normal_iteratorIPiSt6vectorIiSaIiEEE4baseEv
_ZNK9__gnu_cxx17__normal_iteratorIPiSt6vectorIiSaIiEEE4baseEv:
.LFB9622:
	pushq	%rbp
	.seh_pushreg	%rbp
	movq	%rsp, %rbp
	.seh_setframe	%rbp, 0
	.seh_endprologue
	movq	%rcx, 16(%rbp)
	movq	16(%rbp), %rax
	popq	%rbp
	ret
	.seh_endproc
	.section	.text$_ZSt34__uninitialized_move_if_noexcept_aIPiS0_SaIiEET0_T_S3_S2_RT1_,"x"
	.linkonce discard
	.globl	_ZSt34__uninitialized_move_if_noexcept_aIPiS0_SaIiEET0_T_S3_S2_RT1_
	.def	_ZSt34__uninitialized_move_if_noexcept_aIPiS0_SaIiEET0_T_S3_S2_RT1_;	.scl	2;	.type	32;	.endef
	.seh_proc	_ZSt34__uninitialized_move_if_noexcept_aIPiS0_SaIiEET0_T_S3_S2_RT1_
_ZSt34__uninitialized_move_if_noexcept_aIPiS0_SaIiEET0_T_S3_S2_RT1_:
.LFB9623:
	pushq	%rbp
	.seh_pushreg	%rbp
	pushq	%rbx
	.seh_pushreg	%rbx
	subq	$40, %rsp
	.seh_stackalloc	40
	leaq	32(%rsp), %rbp
	.seh_setframe	%rbp, 32
	.seh_endprologue
	movq	%rcx, 32(%rbp)
	movq	%rdx, 40(%rbp)
	movq	%r8, 48(%rbp)
	movq	%r9, 56(%rbp)
	movq	40(%rbp), %rax
	movq	%rax, %rcx
	call	_ZSt32__make_move_if_noexcept_iteratorIiSt13move_iteratorIPiEET0_PT_
	movq	%rax, %rbx
	movq	32(%rbp), %rcx
	call	_ZSt32__make_move_if_noexcept_iteratorIiSt13move_iteratorIPiEET0_PT_
	movq	56(%rbp), %rcx
	movq	48(%rbp), %rdx
	movq	%rcx, %r9
	movq	%rdx, %r8
	movq	%rbx, %rdx
	movq	%rax, %rcx
	call	_ZSt22__uninitialized_copy_aISt13move_iteratorIPiES1_iET0_T_S4_S3_RSaIT1_E
	addq	$40, %rsp
	popq	%rbx
	popq	%rbp
	ret
	.seh_endproc
	.section	.text$_ZNSt16allocator_traitsISaIiEE7destroyIiEEvRS0_PT_,"x"
	.linkonce discard
	.globl	_ZNSt16allocator_traitsISaIiEE7destroyIiEEvRS0_PT_
	.def	_ZNSt16allocator_traitsISaIiEE7destroyIiEEvRS0_PT_;	.scl	2;	.type	32;	.endef
	.seh_proc	_ZNSt16allocator_traitsISaIiEE7destroyIiEEvRS0_PT_
_ZNSt16allocator_traitsISaIiEE7destroyIiEEvRS0_PT_:
.LFB9624:
	pushq	%rbp
	.seh_pushreg	%rbp
	movq	%rsp, %rbp
	.seh_setframe	%rbp, 0
	subq	$32, %rsp
	.seh_stackalloc	32
	.seh_endprologue
	movq	%rcx, 16(%rbp)
	movq	%rdx, 24(%rbp)
	movq	24(%rbp), %rax
	movq	%rax, %rdx
	movq	16(%rbp), %rcx
	call	_ZN9__gnu_cxx13new_allocatorIiE7destroyIiEEvPT_
	nop
	addq	$32, %rsp
	popq	%rbp
	ret
	.seh_endproc
	.section	.text$_ZNKSt6vectorIiSaIiEE8max_sizeEv,"x"
	.linkonce discard
	.align 2
	.globl	_ZNKSt6vectorIiSaIiEE8max_sizeEv
	.def	_ZNKSt6vectorIiSaIiEE8max_sizeEv;	.scl	2;	.type	32;	.endef
	.seh_proc	_ZNKSt6vectorIiSaIiEE8max_sizeEv
_ZNKSt6vectorIiSaIiEE8max_sizeEv:
.LFB9687:
	pushq	%rbp
	.seh_pushreg	%rbp
	movq	%rsp, %rbp
	.seh_setframe	%rbp, 0
	subq	$32, %rsp
	.seh_stackalloc	32
	.seh_endprologue
	movq	%rcx, 16(%rbp)
	movq	16(%rbp), %rax
	movq	%rax, %rcx
	call	_ZNKSt12_Vector_baseIiSaIiEE19_M_get_Tp_allocatorEv
	movq	%rax, %rcx
	call	_ZNSt6vectorIiSaIiEE11_S_max_sizeERKS0_
	addq	$32, %rsp
	popq	%rbp
	ret
	.seh_endproc
	.section	.text$_ZNSt16allocator_traitsISaIiEE8allocateERS0_y,"x"
	.linkonce discard
	.globl	_ZNSt16allocator_traitsISaIiEE8allocateERS0_y
	.def	_ZNSt16allocator_traitsISaIiEE8allocateERS0_y;	.scl	2;	.type	32;	.endef
	.seh_proc	_ZNSt16allocator_traitsISaIiEE8allocateERS0_y
_ZNSt16allocator_traitsISaIiEE8allocateERS0_y:
.LFB9688:
	pushq	%rbp
	.seh_pushreg	%rbp
	movq	%rsp, %rbp
	.seh_setframe	%rbp, 0
	subq	$32, %rsp
	.seh_stackalloc	32
	.seh_endprologue
	movq	%rcx, 16(%rbp)
	movq	%rdx, 24(%rbp)
	movq	24(%rbp), %rax
	movl	$0, %r8d
	movq	%rax, %rdx
	movq	16(%rbp), %rcx
	call	_ZN9__gnu_cxx13new_allocatorIiE8allocateEyPKv
	addq	$32, %rsp
	popq	%rbp
	ret
	.seh_endproc
	.section	.text$_ZNSt6vectorIiSaIiEE14_S_do_relocateEPiS2_S2_RS0_St17integral_constantIbLb1EE,"x"
	.linkonce discard
	.globl	_ZNSt6vectorIiSaIiEE14_S_do_relocateEPiS2_S2_RS0_St17integral_constantIbLb1EE
	.def	_ZNSt6vectorIiSaIiEE14_S_do_relocateEPiS2_S2_RS0_St17integral_constantIbLb1EE;	.scl	2;	.type	32;	.endef
	.seh_proc	_ZNSt6vectorIiSaIiEE14_S_do_relocateEPiS2_S2_RS0_St17integral_constantIbLb1EE
_ZNSt6vectorIiSaIiEE14_S_do_relocateEPiS2_S2_RS0_St17integral_constantIbLb1EE:
.LFB9689:
	pushq	%rbp
	.seh_pushreg	%rbp
	movq	%rsp, %rbp
	.seh_setframe	%rbp, 0
	subq	$32, %rsp
	.seh_stackalloc	32
	.seh_endprologue
	movq	%rcx, 16(%rbp)
	movq	%rdx, 24(%rbp)
	movq	%r8, 32(%rbp)
	movq	%r9, 40(%rbp)
	movq	40(%rbp), %rcx
	movq	32(%rbp), %rdx
	movq	24(%rbp), %rax
	movq	%rcx, %r9
	movq	%rdx, %r8
	movq	%rax, %rdx
	movq	16(%rbp), %rcx
	call	_ZSt12__relocate_aIPiS0_SaIiEET0_T_S3_S2_RT1_
	addq	$32, %rsp
	popq	%rbp
	ret
	.seh_endproc
	.section	.text$_ZSt32__make_move_if_noexcept_iteratorIiSt13move_iteratorIPiEET0_PT_,"x"
	.linkonce discard
	.globl	_ZSt32__make_move_if_noexcept_iteratorIiSt13move_iteratorIPiEET0_PT_
	.def	_ZSt32__make_move_if_noexcept_iteratorIiSt13move_iteratorIPiEET0_PT_;	.scl	2;	.type	32;	.endef
	.seh_proc	_ZSt32__make_move_if_noexcept_iteratorIiSt13move_iteratorIPiEET0_PT_
_ZSt32__make_move_if_noexcept_iteratorIiSt13move_iteratorIPiEET0_PT_:
.LFB9690:
	pushq	%rbp
	.seh_pushreg	%rbp
	movq	%rsp, %rbp
	.seh_setframe	%rbp, 0
	subq	$48, %rsp
	.seh_stackalloc	48
	.seh_endprologue
	movq	%rcx, 16(%rbp)
	leaq	-8(%rbp), %rax
	movq	16(%rbp), %rdx
	movq	%rax, %rcx
	call	_ZNSt13move_iteratorIPiEC1ES0_
	movq	-8(%rbp), %rax
	addq	$48, %rsp
	popq	%rbp
	ret
	.seh_endproc
	.section	.text$_ZSt22__uninitialized_copy_aISt13move_iteratorIPiES1_iET0_T_S4_S3_RSaIT1_E,"x"
	.linkonce discard
	.globl	_ZSt22__uninitialized_copy_aISt13move_iteratorIPiES1_iET0_T_S4_S3_RSaIT1_E
	.def	_ZSt22__uninitialized_copy_aISt13move_iteratorIPiES1_iET0_T_S4_S3_RSaIT1_E;	.scl	2;	.type	32;	.endef
	.seh_proc	_ZSt22__uninitialized_copy_aISt13move_iteratorIPiES1_iET0_T_S4_S3_RSaIT1_E
_ZSt22__uninitialized_copy_aISt13move_iteratorIPiES1_iET0_T_S4_S3_RSaIT1_E:
.LFB9691:
	pushq	%rbp
	.seh_pushreg	%rbp
	movq	%rsp, %rbp
	.seh_setframe	%rbp, 0
	subq	$32, %rsp
	.seh_stackalloc	32
	.seh_endprologue
	movq	%rcx, 16(%rbp)
	movq	%rdx, 24(%rbp)
	movq	%r8, 32(%rbp)
	movq	%r9, 40(%rbp)
	movq	32(%rbp), %rdx
	movq	24(%rbp), %rax
	movq	%rdx, %r8
	movq	%rax, %rdx
	movq	16(%rbp), %rcx
	call	_ZSt18uninitialized_copyISt13move_iteratorIPiES1_ET0_T_S4_S3_
	addq	$32, %rsp
	popq	%rbp
	ret
	.seh_endproc
	.section	.text$_ZN9__gnu_cxx13new_allocatorIiE7destroyIiEEvPT_,"x"
	.linkonce discard
	.align 2
	.globl	_ZN9__gnu_cxx13new_allocatorIiE7destroyIiEEvPT_
	.def	_ZN9__gnu_cxx13new_allocatorIiE7destroyIiEEvPT_;	.scl	2;	.type	32;	.endef
	.seh_proc	_ZN9__gnu_cxx13new_allocatorIiE7destroyIiEEvPT_
_ZN9__gnu_cxx13new_allocatorIiE7destroyIiEEvPT_:
.LFB9692:
	pushq	%rbp
	.seh_pushreg	%rbp
	movq	%rsp, %rbp
	.seh_setframe	%rbp, 0
	.seh_endprologue
	movq	%rcx, 16(%rbp)
	movq	%rdx, 24(%rbp)
	nop
	popq	%rbp
	ret
	.seh_endproc
	.section	.text$_ZNSt6vectorIiSaIiEE11_S_max_sizeERKS0_,"x"
	.linkonce discard
	.globl	_ZNSt6vectorIiSaIiEE11_S_max_sizeERKS0_
	.def	_ZNSt6vectorIiSaIiEE11_S_max_sizeERKS0_;	.scl	2;	.type	32;	.endef
	.seh_proc	_ZNSt6vectorIiSaIiEE11_S_max_sizeERKS0_
_ZNSt6vectorIiSaIiEE11_S_max_sizeERKS0_:
.LFB9786:
	pushq	%rbp
	.seh_pushreg	%rbp
	movq	%rsp, %rbp
	.seh_setframe	%rbp, 0
	subq	$48, %rsp
	.seh_stackalloc	48
	.seh_endprologue
	movq	%rcx, 16(%rbp)
	movabsq	$2305843009213693951, %rax
	movq	%rax, -8(%rbp)
	movq	16(%rbp), %rcx
	call	_ZNSt16allocator_traitsISaIiEE8max_sizeERKS0_
	movq	%rax, -16(%rbp)
	leaq	-16(%rbp), %rdx
	leaq	-8(%rbp), %rax
	movq	%rax, %rcx
	call	_ZSt3minIyERKT_S2_S2_
	movq	(%rax), %rax
	addq	$48, %rsp
	popq	%rbp
	ret
	.seh_endproc
	.section	.text$_ZNKSt12_Vector_baseIiSaIiEE19_M_get_Tp_allocatorEv,"x"
	.linkonce discard
	.align 2
	.globl	_ZNKSt12_Vector_baseIiSaIiEE19_M_get_Tp_allocatorEv
	.def	_ZNKSt12_Vector_baseIiSaIiEE19_M_get_Tp_allocatorEv;	.scl	2;	.type	32;	.endef
	.seh_proc	_ZNKSt12_Vector_baseIiSaIiEE19_M_get_Tp_allocatorEv
_ZNKSt12_Vector_baseIiSaIiEE19_M_get_Tp_allocatorEv:
.LFB9787:
	pushq	%rbp
	.seh_pushreg	%rbp
	movq	%rsp, %rbp
	.seh_setframe	%rbp, 0
	.seh_endprologue
	movq	%rcx, 16(%rbp)
	movq	16(%rbp), %rax
	popq	%rbp
	ret
	.seh_endproc
	.section	.text$_ZN9__gnu_cxx13new_allocatorIiE8allocateEyPKv,"x"
	.linkonce discard
	.align 2
	.globl	_ZN9__gnu_cxx13new_allocatorIiE8allocateEyPKv
	.def	_ZN9__gnu_cxx13new_allocatorIiE8allocateEyPKv;	.scl	2;	.type	32;	.endef
	.seh_proc	_ZN9__gnu_cxx13new_allocatorIiE8allocateEyPKv
_ZN9__gnu_cxx13new_allocatorIiE8allocateEyPKv:
.LFB9788:
	pushq	%rbp
	.seh_pushreg	%rbp
	movq	%rsp, %rbp
	.seh_setframe	%rbp, 0
	subq	$32, %rsp
	.seh_stackalloc	32
	.seh_endprologue
	movq	%rcx, 16(%rbp)
	movq	%rdx, 24(%rbp)
	movq	%r8, 32(%rbp)
	movq	16(%rbp), %rcx
	call	_ZNK9__gnu_cxx13new_allocatorIiE11_M_max_sizeEv
	cmpq	%rax, 24(%rbp)
	seta	%al
	testb	%al, %al
	je	.L115
	call	_ZSt17__throw_bad_allocv
.L115:
	movq	24(%rbp), %rax
	salq	$2, %rax
	movq	%rax, %rcx
	call	_Znwy
	addq	$32, %rsp
	popq	%rbp
	ret
	.seh_endproc
	.section	.text$_ZSt12__relocate_aIPiS0_SaIiEET0_T_S3_S2_RT1_,"x"
	.linkonce discard
	.globl	_ZSt12__relocate_aIPiS0_SaIiEET0_T_S3_S2_RT1_
	.def	_ZSt12__relocate_aIPiS0_SaIiEET0_T_S3_S2_RT1_;	.scl	2;	.type	32;	.endef
	.seh_proc	_ZSt12__relocate_aIPiS0_SaIiEET0_T_S3_S2_RT1_
_ZSt12__relocate_aIPiS0_SaIiEET0_T_S3_S2_RT1_:
.LFB9789:
	pushq	%rbp
	.seh_pushreg	%rbp
	pushq	%rsi
	.seh_pushreg	%rsi
	pushq	%rbx
	.seh_pushreg	%rbx
	subq	$32, %rsp
	.seh_stackalloc	32
	leaq	32(%rsp), %rbp
	.seh_setframe	%rbp, 32
	.seh_endprologue
	movq	%rcx, 32(%rbp)
	movq	%rdx, 40(%rbp)
	movq	%r8, 48(%rbp)
	movq	%r9, 56(%rbp)
	movq	48(%rbp), %rax
	movq	%rax, %rcx
	call	_ZSt12__niter_baseIPiET_S1_
	movq	%rax, %rsi
	movq	40(%rbp), %rax
	movq	%rax, %rcx
	call	_ZSt12__niter_baseIPiET_S1_
	movq	%rax, %rbx
	movq	32(%rbp), %rcx
	call	_ZSt12__niter_baseIPiET_S1_
	movq	56(%rbp), %rdx
	movq	%rdx, %r9
	movq	%rsi, %r8
	movq	%rbx, %rdx
	movq	%rax, %rcx
	call	_ZSt14__relocate_a_1IiiENSt9enable_ifIXsrSt24__is_bitwise_relocatableIT_vE5valueEPS2_E4typeES4_S4_S4_RSaIT0_E
	addq	$32, %rsp
	popq	%rbx
	popq	%rsi
	popq	%rbp
	ret
	.seh_endproc
	.section	.text$_ZNSt13move_iteratorIPiEC1ES0_,"x"
	.linkonce discard
	.align 2
	.globl	_ZNSt13move_iteratorIPiEC1ES0_
	.def	_ZNSt13move_iteratorIPiEC1ES0_;	.scl	2;	.type	32;	.endef
	.seh_proc	_ZNSt13move_iteratorIPiEC1ES0_
_ZNSt13move_iteratorIPiEC1ES0_:
.LFB9792:
	pushq	%rbp
	.seh_pushreg	%rbp
	movq	%rsp, %rbp
	.seh_setframe	%rbp, 0
	subq	$32, %rsp
	.seh_stackalloc	32
	.seh_endprologue
	movq	%rcx, 16(%rbp)
	movq	%rdx, 24(%rbp)
	leaq	24(%rbp), %rax
	movq	%rax, %rcx
	call	_ZSt4moveIRPiEONSt16remove_referenceIT_E4typeEOS3_
	movq	(%rax), %rdx
	movq	16(%rbp), %rax
	movq	%rdx, (%rax)
	nop
	addq	$32, %rsp
	popq	%rbp
	ret
	.seh_endproc
	.section	.text$_ZSt18uninitialized_copyISt13move_iteratorIPiES1_ET0_T_S4_S3_,"x"
	.linkonce discard
	.globl	_ZSt18uninitialized_copyISt13move_iteratorIPiES1_ET0_T_S4_S3_
	.def	_ZSt18uninitialized_copyISt13move_iteratorIPiES1_ET0_T_S4_S3_;	.scl	2;	.type	32;	.endef
	.seh_proc	_ZSt18uninitialized_copyISt13move_iteratorIPiES1_ET0_T_S4_S3_
_ZSt18uninitialized_copyISt13move_iteratorIPiES1_ET0_T_S4_S3_:
.LFB9793:
	pushq	%rbp
	.seh_pushreg	%rbp
	movq	%rsp, %rbp
	.seh_setframe	%rbp, 0
	subq	$48, %rsp
	.seh_stackalloc	48
	.seh_endprologue
	movq	%rcx, 16(%rbp)
	movq	%rdx, 24(%rbp)
	movq	%r8, 32(%rbp)
	movb	$1, -1(%rbp)
	movq	32(%rbp), %rdx
	movq	24(%rbp), %rax
	movq	%rdx, %r8
	movq	%rax, %rdx
	movq	16(%rbp), %rcx
	call	_ZNSt20__uninitialized_copyILb1EE13__uninit_copyISt13move_iteratorIPiES3_EET0_T_S6_S5_
	addq	$48, %rsp
	popq	%rbp
	ret
	.seh_endproc
	.section	.text$_ZNSt16allocator_traitsISaIiEE8max_sizeERKS0_,"x"
	.linkonce discard
	.globl	_ZNSt16allocator_traitsISaIiEE8max_sizeERKS0_
	.def	_ZNSt16allocator_traitsISaIiEE8max_sizeERKS0_;	.scl	2;	.type	32;	.endef
	.seh_proc	_ZNSt16allocator_traitsISaIiEE8max_sizeERKS0_
_ZNSt16allocator_traitsISaIiEE8max_sizeERKS0_:
.LFB9853:
	pushq	%rbp
	.seh_pushreg	%rbp
	movq	%rsp, %rbp
	.seh_setframe	%rbp, 0
	subq	$32, %rsp
	.seh_stackalloc	32
	.seh_endprologue
	movq	%rcx, 16(%rbp)
	movq	16(%rbp), %rcx
	call	_ZNK9__gnu_cxx13new_allocatorIiE8max_sizeEv
	addq	$32, %rsp
	popq	%rbp
	ret
	.seh_endproc
	.section	.text$_ZNK9__gnu_cxx13new_allocatorIiE11_M_max_sizeEv,"x"
	.linkonce discard
	.align 2
	.globl	_ZNK9__gnu_cxx13new_allocatorIiE11_M_max_sizeEv
	.def	_ZNK9__gnu_cxx13new_allocatorIiE11_M_max_sizeEv;	.scl	2;	.type	32;	.endef
	.seh_proc	_ZNK9__gnu_cxx13new_allocatorIiE11_M_max_sizeEv
_ZNK9__gnu_cxx13new_allocatorIiE11_M_max_sizeEv:
.LFB9854:
	pushq	%rbp
	.seh_pushreg	%rbp
	movq	%rsp, %rbp
	.seh_setframe	%rbp, 0
	.seh_endprologue
	movq	%rcx, 16(%rbp)
	movabsq	$2305843009213693951, %rax
	popq	%rbp
	ret
	.seh_endproc
	.section	.text$_ZSt12__niter_baseIPiET_S1_,"x"
	.linkonce discard
	.globl	_ZSt12__niter_baseIPiET_S1_
	.def	_ZSt12__niter_baseIPiET_S1_;	.scl	2;	.type	32;	.endef
	.seh_proc	_ZSt12__niter_baseIPiET_S1_
_ZSt12__niter_baseIPiET_S1_:
.LFB9855:
	pushq	%rbp
	.seh_pushreg	%rbp
	movq	%rsp, %rbp
	.seh_setframe	%rbp, 0
	.seh_endprologue
	movq	%rcx, 16(%rbp)
	movq	16(%rbp), %rax
	popq	%rbp
	ret
	.seh_endproc
	.section	.text$_ZSt14__relocate_a_1IiiENSt9enable_ifIXsrSt24__is_bitwise_relocatableIT_vE5valueEPS2_E4typeES4_S4_S4_RSaIT0_E,"x"
	.linkonce discard
	.globl	_ZSt14__relocate_a_1IiiENSt9enable_ifIXsrSt24__is_bitwise_relocatableIT_vE5valueEPS2_E4typeES4_S4_S4_RSaIT0_E
	.def	_ZSt14__relocate_a_1IiiENSt9enable_ifIXsrSt24__is_bitwise_relocatableIT_vE5valueEPS2_E4typeES4_S4_S4_RSaIT0_E;	.scl	2;	.type	32;	.endef
	.seh_proc	_ZSt14__relocate_a_1IiiENSt9enable_ifIXsrSt24__is_bitwise_relocatableIT_vE5valueEPS2_E4typeES4_S4_S4_RSaIT0_E
_ZSt14__relocate_a_1IiiENSt9enable_ifIXsrSt24__is_bitwise_relocatableIT_vE5valueEPS2_E4typeES4_S4_S4_RSaIT0_E:
.LFB9856:
	pushq	%rbp
	.seh_pushreg	%rbp
	movq	%rsp, %rbp
	.seh_setframe	%rbp, 0
	subq	$48, %rsp
	.seh_stackalloc	48
	.seh_endprologue
	movq	%rcx, 16(%rbp)
	movq	%rdx, 24(%rbp)
	movq	%r8, 32(%rbp)
	movq	%r9, 40(%rbp)
	movq	24(%rbp), %rax
	subq	16(%rbp), %rax
	sarq	$2, %rax
	movq	%rax, -8(%rbp)
	cmpq	$0, -8(%rbp)
	jle	.L129
	movq	-8(%rbp), %rax
	leaq	0(,%rax,4), %rdx
	movq	32(%rbp), %rax
	movq	%rdx, %r8
	movq	16(%rbp), %rdx
	movq	%rax, %rcx
	call	memmove
.L129:
	movq	-8(%rbp), %rax
	leaq	0(,%rax,4), %rdx
	movq	32(%rbp), %rax
	addq	%rdx, %rax
	addq	$48, %rsp
	popq	%rbp
	ret
	.seh_endproc
	.section	.text$_ZSt4moveIRPiEONSt16remove_referenceIT_E4typeEOS3_,"x"
	.linkonce discard
	.globl	_ZSt4moveIRPiEONSt16remove_referenceIT_E4typeEOS3_
	.def	_ZSt4moveIRPiEONSt16remove_referenceIT_E4typeEOS3_;	.scl	2;	.type	32;	.endef
	.seh_proc	_ZSt4moveIRPiEONSt16remove_referenceIT_E4typeEOS3_
_ZSt4moveIRPiEONSt16remove_referenceIT_E4typeEOS3_:
.LFB9857:
	pushq	%rbp
	.seh_pushreg	%rbp
	movq	%rsp, %rbp
	.seh_setframe	%rbp, 0
	.seh_endprologue
	movq	%rcx, 16(%rbp)
	movq	16(%rbp), %rax
	popq	%rbp
	ret
	.seh_endproc
	.section	.text$_ZNSt20__uninitialized_copyILb1EE13__uninit_copyISt13move_iteratorIPiES3_EET0_T_S6_S5_,"x"
	.linkonce discard
	.globl	_ZNSt20__uninitialized_copyILb1EE13__uninit_copyISt13move_iteratorIPiES3_EET0_T_S6_S5_
	.def	_ZNSt20__uninitialized_copyILb1EE13__uninit_copyISt13move_iteratorIPiES3_EET0_T_S6_S5_;	.scl	2;	.type	32;	.endef
	.seh_proc	_ZNSt20__uninitialized_copyILb1EE13__uninit_copyISt13move_iteratorIPiES3_EET0_T_S6_S5_
_ZNSt20__uninitialized_copyILb1EE13__uninit_copyISt13move_iteratorIPiES3_EET0_T_S6_S5_:
.LFB9858:
	pushq	%rbp
	.seh_pushreg	%rbp
	movq	%rsp, %rbp
	.seh_setframe	%rbp, 0
	subq	$32, %rsp
	.seh_stackalloc	32
	.seh_endprologue
	movq	%rcx, 16(%rbp)
	movq	%rdx, 24(%rbp)
	movq	%r8, 32(%rbp)
	movq	32(%rbp), %rdx
	movq	24(%rbp), %rax
	movq	%rdx, %r8
	movq	%rax, %rdx
	movq	16(%rbp), %rcx
	call	_ZSt4copyISt13move_iteratorIPiES1_ET0_T_S4_S3_
	addq	$32, %rsp
	popq	%rbp
	ret
	.seh_endproc
	.section	.text$_ZNK9__gnu_cxx13new_allocatorIiE8max_sizeEv,"x"
	.linkonce discard
	.align 2
	.globl	_ZNK9__gnu_cxx13new_allocatorIiE8max_sizeEv
	.def	_ZNK9__gnu_cxx13new_allocatorIiE8max_sizeEv;	.scl	2;	.type	32;	.endef
	.seh_proc	_ZNK9__gnu_cxx13new_allocatorIiE8max_sizeEv
_ZNK9__gnu_cxx13new_allocatorIiE8max_sizeEv:
.LFB9880:
	pushq	%rbp
	.seh_pushreg	%rbp
	movq	%rsp, %rbp
	.seh_setframe	%rbp, 0
	subq	$32, %rsp
	.seh_stackalloc	32
	.seh_endprologue
	movq	%rcx, 16(%rbp)
	movq	16(%rbp), %rcx
	call	_ZNK9__gnu_cxx13new_allocatorIiE11_M_max_sizeEv
	addq	$32, %rsp
	popq	%rbp
	ret
	.seh_endproc
	.section	.text$_ZSt4copyISt13move_iteratorIPiES1_ET0_T_S4_S3_,"x"
	.linkonce discard
	.globl	_ZSt4copyISt13move_iteratorIPiES1_ET0_T_S4_S3_
	.def	_ZSt4copyISt13move_iteratorIPiES1_ET0_T_S4_S3_;	.scl	2;	.type	32;	.endef
	.seh_proc	_ZSt4copyISt13move_iteratorIPiES1_ET0_T_S4_S3_
_ZSt4copyISt13move_iteratorIPiES1_ET0_T_S4_S3_:
.LFB9881:
	pushq	%rbp
	.seh_pushreg	%rbp
	pushq	%rbx
	.seh_pushreg	%rbx
	subq	$40, %rsp
	.seh_stackalloc	40
	leaq	32(%rsp), %rbp
	.seh_setframe	%rbp, 32
	.seh_endprologue
	movq	%rcx, 32(%rbp)
	movq	%rdx, 40(%rbp)
	movq	%r8, 48(%rbp)
	movq	40(%rbp), %rax
	movq	%rax, %rcx
	call	_ZSt12__miter_baseIPiEDTcl12__miter_basecldtfp_4baseEEESt13move_iteratorIT_E
	movq	%rax, %rbx
	movq	32(%rbp), %rcx
	call	_ZSt12__miter_baseIPiEDTcl12__miter_basecldtfp_4baseEEESt13move_iteratorIT_E
	movq	48(%rbp), %rdx
	movq	%rdx, %r8
	movq	%rbx, %rdx
	movq	%rax, %rcx
	call	_ZSt13__copy_move_aILb1EPiS0_ET1_T0_S2_S1_
	addq	$40, %rsp
	popq	%rbx
	popq	%rbp
	ret
	.seh_endproc
	.section	.text$_ZSt12__miter_baseIPiEDTcl12__miter_basecldtfp_4baseEEESt13move_iteratorIT_E,"x"
	.linkonce discard
	.globl	_ZSt12__miter_baseIPiEDTcl12__miter_basecldtfp_4baseEEESt13move_iteratorIT_E
	.def	_ZSt12__miter_baseIPiEDTcl12__miter_basecldtfp_4baseEEESt13move_iteratorIT_E;	.scl	2;	.type	32;	.endef
	.seh_proc	_ZSt12__miter_baseIPiEDTcl12__miter_basecldtfp_4baseEEESt13move_iteratorIT_E
_ZSt12__miter_baseIPiEDTcl12__miter_basecldtfp_4baseEEESt13move_iteratorIT_E:
.LFB9885:
	pushq	%rbp
	.seh_pushreg	%rbp
	movq	%rsp, %rbp
	.seh_setframe	%rbp, 0
	subq	$32, %rsp
	.seh_stackalloc	32
	.seh_endprologue
	movq	%rcx, 16(%rbp)
	leaq	16(%rbp), %rcx
	call	_ZNKSt13move_iteratorIPiE4baseEv
	movq	%rax, %rcx
	call	_ZSt12__miter_baseIPiET_S1_
	addq	$32, %rsp
	popq	%rbp
	ret
	.seh_endproc
	.section	.text$_ZSt13__copy_move_aILb1EPiS0_ET1_T0_S2_S1_,"x"
	.linkonce discard
	.globl	_ZSt13__copy_move_aILb1EPiS0_ET1_T0_S2_S1_
	.def	_ZSt13__copy_move_aILb1EPiS0_ET1_T0_S2_S1_;	.scl	2;	.type	32;	.endef
	.seh_proc	_ZSt13__copy_move_aILb1EPiS0_ET1_T0_S2_S1_
_ZSt13__copy_move_aILb1EPiS0_ET1_T0_S2_S1_:
.LFB9886:
	pushq	%rbp
	.seh_pushreg	%rbp
	pushq	%rsi
	.seh_pushreg	%rsi
	pushq	%rbx
	.seh_pushreg	%rbx
	subq	$32, %rsp
	.seh_stackalloc	32
	leaq	32(%rsp), %rbp
	.seh_setframe	%rbp, 32
	.seh_endprologue
	movq	%rcx, 32(%rbp)
	movq	%rdx, 40(%rbp)
	movq	%r8, 48(%rbp)
	movq	48(%rbp), %rax
	movq	%rax, %rcx
	call	_ZSt12__niter_baseIPiET_S1_
	movq	%rax, %rsi
	movq	40(%rbp), %rax
	movq	%rax, %rcx
	call	_ZSt12__niter_baseIPiET_S1_
	movq	%rax, %rbx
	movq	32(%rbp), %rcx
	call	_ZSt12__niter_baseIPiET_S1_
	movq	%rsi, %r8
	movq	%rbx, %rdx
	movq	%rax, %rcx
	call	_ZSt14__copy_move_a1ILb1EPiS0_ET1_T0_S2_S1_
	movq	%rax, %rdx
	leaq	48(%rbp), %rax
	movq	%rax, %rcx
	call	_ZSt12__niter_wrapIPiET_RKS1_S1_
	addq	$32, %rsp
	popq	%rbx
	popq	%rsi
	popq	%rbp
	ret
	.seh_endproc
	.section	.text$_ZNKSt13move_iteratorIPiE4baseEv,"x"
	.linkonce discard
	.align 2
	.globl	_ZNKSt13move_iteratorIPiE4baseEv
	.def	_ZNKSt13move_iteratorIPiE4baseEv;	.scl	2;	.type	32;	.endef
	.seh_proc	_ZNKSt13move_iteratorIPiE4baseEv
_ZNKSt13move_iteratorIPiE4baseEv:
.LFB9888:
	pushq	%rbp
	.seh_pushreg	%rbp
	movq	%rsp, %rbp
	.seh_setframe	%rbp, 0
	.seh_endprologue
	movq	%rcx, 16(%rbp)
	movq	16(%rbp), %rax
	movq	(%rax), %rax
	popq	%rbp
	ret
	.seh_endproc
	.section	.text$_ZSt12__miter_baseIPiET_S1_,"x"
	.linkonce discard
	.globl	_ZSt12__miter_baseIPiET_S1_
	.def	_ZSt12__miter_baseIPiET_S1_;	.scl	2;	.type	32;	.endef
	.seh_proc	_ZSt12__miter_baseIPiET_S1_
_ZSt12__miter_baseIPiET_S1_:
.LFB9889:
	pushq	%rbp
	.seh_pushreg	%rbp
	movq	%rsp, %rbp
	.seh_setframe	%rbp, 0
	.seh_endprologue
	movq	%rcx, 16(%rbp)
	movq	16(%rbp), %rax
	popq	%rbp
	ret
	.seh_endproc
	.section	.text$_ZSt14__copy_move_a1ILb1EPiS0_ET1_T0_S2_S1_,"x"
	.linkonce discard
	.globl	_ZSt14__copy_move_a1ILb1EPiS0_ET1_T0_S2_S1_
	.def	_ZSt14__copy_move_a1ILb1EPiS0_ET1_T0_S2_S1_;	.scl	2;	.type	32;	.endef
	.seh_proc	_ZSt14__copy_move_a1ILb1EPiS0_ET1_T0_S2_S1_
_ZSt14__copy_move_a1ILb1EPiS0_ET1_T0_S2_S1_:
.LFB9890:
	pushq	%rbp
	.seh_pushreg	%rbp
	movq	%rsp, %rbp
	.seh_setframe	%rbp, 0
	subq	$32, %rsp
	.seh_stackalloc	32
	.seh_endprologue
	movq	%rcx, 16(%rbp)
	movq	%rdx, 24(%rbp)
	movq	%r8, 32(%rbp)
	movq	32(%rbp), %rdx
	movq	24(%rbp), %rax
	movq	%rdx, %r8
	movq	%rax, %rdx
	movq	16(%rbp), %rcx
	call	_ZSt14__copy_move_a2ILb1EPiS0_ET1_T0_S2_S1_
	addq	$32, %rsp
	popq	%rbp
	ret
	.seh_endproc
	.section	.text$_ZSt12__niter_wrapIPiET_RKS1_S1_,"x"
	.linkonce discard
	.globl	_ZSt12__niter_wrapIPiET_RKS1_S1_
	.def	_ZSt12__niter_wrapIPiET_RKS1_S1_;	.scl	2;	.type	32;	.endef
	.seh_proc	_ZSt12__niter_wrapIPiET_RKS1_S1_
_ZSt12__niter_wrapIPiET_RKS1_S1_:
.LFB9891:
	pushq	%rbp
	.seh_pushreg	%rbp
	movq	%rsp, %rbp
	.seh_setframe	%rbp, 0
	.seh_endprologue
	movq	%rcx, 16(%rbp)
	movq	%rdx, 24(%rbp)
	movq	24(%rbp), %rax
	popq	%rbp
	ret
	.seh_endproc
	.section	.text$_ZSt14__copy_move_a2ILb1EPiS0_ET1_T0_S2_S1_,"x"
	.linkonce discard
	.globl	_ZSt14__copy_move_a2ILb1EPiS0_ET1_T0_S2_S1_
	.def	_ZSt14__copy_move_a2ILb1EPiS0_ET1_T0_S2_S1_;	.scl	2;	.type	32;	.endef
	.seh_proc	_ZSt14__copy_move_a2ILb1EPiS0_ET1_T0_S2_S1_
_ZSt14__copy_move_a2ILb1EPiS0_ET1_T0_S2_S1_:
.LFB9893:
	pushq	%rbp
	.seh_pushreg	%rbp
	movq	%rsp, %rbp
	.seh_setframe	%rbp, 0
	subq	$32, %rsp
	.seh_stackalloc	32
	.seh_endprologue
	movq	%rcx, 16(%rbp)
	movq	%rdx, 24(%rbp)
	movq	%r8, 32(%rbp)
	movq	32(%rbp), %rdx
	movq	24(%rbp), %rax
	movq	%rdx, %r8
	movq	%rax, %rdx
	movq	16(%rbp), %rcx
	call	_ZNSt11__copy_moveILb1ELb1ESt26random_access_iterator_tagE8__copy_mIiEEPT_PKS3_S6_S4_
	addq	$32, %rsp
	popq	%rbp
	ret
	.seh_endproc
	.section	.text$_ZNSt11__copy_moveILb1ELb1ESt26random_access_iterator_tagE8__copy_mIiEEPT_PKS3_S6_S4_,"x"
	.linkonce discard
	.globl	_ZNSt11__copy_moveILb1ELb1ESt26random_access_iterator_tagE8__copy_mIiEEPT_PKS3_S6_S4_
	.def	_ZNSt11__copy_moveILb1ELb1ESt26random_access_iterator_tagE8__copy_mIiEEPT_PKS3_S6_S4_;	.scl	2;	.type	32;	.endef
	.seh_proc	_ZNSt11__copy_moveILb1ELb1ESt26random_access_iterator_tagE8__copy_mIiEEPT_PKS3_S6_S4_
_ZNSt11__copy_moveILb1ELb1ESt26random_access_iterator_tagE8__copy_mIiEEPT_PKS3_S6_S4_:
.LFB9895:
	pushq	%rbp
	.seh_pushreg	%rbp
	movq	%rsp, %rbp
	.seh_setframe	%rbp, 0
	subq	$48, %rsp
	.seh_stackalloc	48
	.seh_endprologue
	movq	%rcx, 16(%rbp)
	movq	%rdx, 24(%rbp)
	movq	%r8, 32(%rbp)
	movq	24(%rbp), %rax
	subq	16(%rbp), %rax
	sarq	$2, %rax
	movq	%rax, -8(%rbp)
	cmpq	$0, -8(%rbp)
	je	.L154
	movq	-8(%rbp), %rax
	leaq	0(,%rax,4), %rdx
	movq	32(%rbp), %rax
	movq	%rdx, %r8
	movq	16(%rbp), %rdx
	movq	%rax, %rcx
	call	memmove
.L154:
	movq	-8(%rbp), %rax
	leaq	0(,%rax,4), %rdx
	movq	32(%rbp), %rax
	addq	%rdx, %rax
	addq	$48, %rsp
	popq	%rbp
	ret
	.seh_endproc
	.text
	.def	__tcf_0;	.scl	3;	.type	32;	.endef
	.seh_proc	__tcf_0
__tcf_0:
.LFB9921:
	pushq	%rbp
	.seh_pushreg	%rbp
	movq	%rsp, %rbp
	.seh_setframe	%rbp, 0
	subq	$32, %rsp
	.seh_stackalloc	32
	.seh_endprologue
	leaq	_ZStL8__ioinit(%rip), %rcx
	call	_ZNSt8ios_base4InitD1Ev
	nop
	addq	$32, %rsp
	popq	%rbp
	ret
	.seh_endproc
	.def	_Z41__static_initialization_and_destruction_0ii;	.scl	3;	.type	32;	.endef
	.seh_proc	_Z41__static_initialization_and_destruction_0ii
_Z41__static_initialization_and_destruction_0ii:
.LFB9920:
	pushq	%rbp
	.seh_pushreg	%rbp
	movq	%rsp, %rbp
	.seh_setframe	%rbp, 0
	subq	$32, %rsp
	.seh_stackalloc	32
	.seh_endprologue
	movl	%ecx, 16(%rbp)
	movl	%edx, 24(%rbp)
	cmpl	$1, 16(%rbp)
	jne	.L159
	cmpl	$65535, 24(%rbp)
	jne	.L159
	leaq	_ZStL8__ioinit(%rip), %rcx
	call	_ZNSt8ios_base4InitC1Ev
	leaq	__tcf_0(%rip), %rcx
	call	atexit
.L159:
	nop
	addq	$32, %rsp
	popq	%rbp
	ret
	.seh_endproc
	.def	_GLOBAL__sub_I_main;	.scl	3;	.type	32;	.endef
	.seh_proc	_GLOBAL__sub_I_main
_GLOBAL__sub_I_main:
.LFB9944:
	pushq	%rbp
	.seh_pushreg	%rbp
	movq	%rsp, %rbp
	.seh_setframe	%rbp, 0
	subq	$32, %rsp
	.seh_stackalloc	32
	.seh_endprologue
	movl	$65535, %edx
	movl	$1, %ecx
	call	_Z41__static_initialization_and_destruction_0ii
	nop
	addq	$32, %rsp
	popq	%rbp
	ret
	.seh_endproc
	.section	.ctors,"w"
	.align 8
	.quad	_GLOBAL__sub_I_main
	.ident	"GCC: (Rev5, Built by MSYS2 project) 10.3.0"
	.def	_ZNSirsERl;	.scl	2;	.type	32;	.endef
	.def	_ZNSolsEi;	.scl	2;	.type	32;	.endef
	.def	_ZNSolsEPFRSoS_E;	.scl	2;	.type	32;	.endef
	.def	_Unwind_Resume;	.scl	2;	.type	32;	.endef
	.def	__cxa_begin_catch;	.scl	2;	.type	32;	.endef
	.def	__cxa_rethrow;	.scl	2;	.type	32;	.endef
	.def	__cxa_end_catch;	.scl	2;	.type	32;	.endef
	.def	_ZdlPvy;	.scl	2;	.type	32;	.endef
	.def	_ZSt20__throw_length_errorPKc;	.scl	2;	.type	32;	.endef
	.def	_ZSt17__throw_bad_allocv;	.scl	2;	.type	32;	.endef
	.def	_Znwy;	.scl	2;	.type	32;	.endef
	.def	memmove;	.scl	2;	.type	32;	.endef
	.def	_ZNSt8ios_base4InitD1Ev;	.scl	2;	.type	32;	.endef
	.def	_ZNSt8ios_base4InitC1Ev;	.scl	2;	.type	32;	.endef
	.def	atexit;	.scl	2;	.type	32;	.endef
	.section	.rdata$.refptr._ZSt4endlIcSt11char_traitsIcEERSt13basic_ostreamIT_T0_ES6_, "dr"
	.globl	.refptr._ZSt4endlIcSt11char_traitsIcEERSt13basic_ostreamIT_T0_ES6_
	.linkonce	discard
.refptr._ZSt4endlIcSt11char_traitsIcEERSt13basic_ostreamIT_T0_ES6_:
	.quad	_ZSt4endlIcSt11char_traitsIcEERSt13basic_ostreamIT_T0_ES6_
	.section	.rdata$.refptr._ZSt4cout, "dr"
	.globl	.refptr._ZSt4cout
	.linkonce	discard
.refptr._ZSt4cout:
	.quad	_ZSt4cout
	.section	.rdata$.refptr._ZSt3cin, "dr"
	.globl	.refptr._ZSt3cin
	.linkonce	discard
.refptr._ZSt3cin:
	.quad	_ZSt3cin
